(dp1
S'failed'
p2
(lp3
sS'source_names'
p4
(lp5
S'tests'
p6
asS'ids'
p7
(dp8
I1
(S'/Users/rliebz/Projects/osf/tests/framework_tests/test_analytics.py'
S'tests.framework_tests.test_analytics'
p9
S'TestAnalytics.test_get_total_activity_count'
tp10
sI2
(S'/Users/rliebz/Projects/osf/tests/framework_tests/test_analytics.py'
g9
S'TestAnalytics.test_increment_user_activity_counters'
tp11
sI3
(S'/Users/rliebz/Projects/osf/tests/framework_tests/test_analytics.py'
g9
S'TestUpdateCounters.test_get_basic_counters'
tp12
sI4
(S'/Users/rliebz/Projects/osf/tests/framework_tests/test_analytics.py'
g9
S'TestUpdateCounters.test_update_counters_file'
tp13
sI5
(S'/Users/rliebz/Projects/osf/tests/framework_tests/test_analytics.py'
g9
S'TestUpdateCounters.test_update_counters_file_version'
tp14
sI6
(S'/Users/rliebz/Projects/osf/tests/framework_tests/test_email.py'
S'tests.framework_tests.test_email'
p15
S'TestEmail.test_sending_email'
tp16
sI7
(S'/Users/rliebz/Projects/osf/tests/framework_tests/test_modular_templates.py'
S'tests.framework_tests.test_modular_templates'
p17
S'JSONRendererEncoderTestCase.test_encode_custom_class'
tp18
sI8
(S'/Users/rliebz/Projects/osf/tests/framework_tests/test_modular_templates.py'
g17
S'JSONRendererEncoderTestCase.test_string'
tp19
sI9
(S'/Users/rliebz/Projects/osf/tests/framework_tests/test_modular_templates.py'
g17
S'JSONRendererTestCase.test_http_error_raised'
tp20
sI10
(S'/Users/rliebz/Projects/osf/tests/framework_tests/test_modular_templates.py'
g17
S'JSONRendererTestCase.test_redirect'
tp21
sI11
(S'/Users/rliebz/Projects/osf/tests/framework_tests/test_modular_templates.py'
g17
S'JSONRendererTestCase.test_tuple'
tp22
sI12
(S'/Users/rliebz/Projects/osf/tests/framework_tests/test_modular_templates.py'
g17
S'RendererTestCase.test_http_error_raised'
tp23
sI13
(S'/Users/rliebz/Projects/osf/tests/framework_tests/test_modular_templates.py'
g17
S'RendererTestCase.test_redirect'
tp24
sI14
(S'/Users/rliebz/Projects/osf/tests/framework_tests/test_modular_templates.py'
g17
S'RendererTestCase.test_tuple'
tp25
sI15
(S'/Users/rliebz/Projects/osf/tests/framework_tests/test_modular_templates.py'
g17
S'WebRendererTemplateTestCase.test_broken_template_uri'
tp26
sI16
(S'/Users/rliebz/Projects/osf/tests/framework_tests/test_modular_templates.py'
g17
S'WebRendererTemplateTestCase.test_nested_templates'
tp27
sI17
(S'/Users/rliebz/Projects/osf/tests/framework_tests/test_modular_templates.py'
g17
S'WebRendererTemplateTestCase.test_render_included_template'
tp28
sI18
(S'/Users/rliebz/Projects/osf/tests/framework_tests/test_modular_templates.py'
g17
S'WebRendererTemplateTestCase.test_render_included_template_not_found'
tp29
sI19
(S'/Users/rliebz/Projects/osf/tests/framework_tests/test_modular_templates.py'
g17
S'WebRendererTestCase.test_http_error_raise_with_redirect'
tp30
sI20
(S'/Users/rliebz/Projects/osf/tests/framework_tests/test_modular_templates.py'
g17
S'WebRendererTestCase.test_http_error_raised'
tp31
sI21
(S'/Users/rliebz/Projects/osf/tests/framework_tests/test_modular_templates.py'
g17
S'WebRendererTestCase.test_input_dict'
tp32
sI22
(S'/Users/rliebz/Projects/osf/tests/framework_tests/test_modular_templates.py'
g17
S'WebRendererTestCase.test_redirect'
tp33
sI23
(S'/Users/rliebz/Projects/osf/tests/framework_tests/test_routing.py'
S'tests.framework_tests.test_routing'
p34
S'TestJSONRenderer.test_error_handling'
tp35
sI24
(S'/Users/rliebz/Projects/osf/tests/framework_tests/test_routing.py'
g34
S'TestJSONRenderer.test_error_handling_with_message'
tp36
sI25
(S'/Users/rliebz/Projects/osf/tests/framework_tests/test_sentry.py'
S'tests.framework_tests.test_sentry'
p37
S'TestSentry.test_log_logged_in'
tp38
sI26
(S'/Users/rliebz/Projects/osf/tests/framework_tests/test_sentry.py'
g37
S'TestSentry.test_log_not_enabled'
tp39
sI27
(S'/Users/rliebz/Projects/osf/tests/framework_tests/test_sentry.py'
g37
S'TestSentry.test_log_not_logged_in'
tp40
sI28
(S'/Users/rliebz/Projects/osf/tests/framework_tests/test_sentry.py'
g37
S'test_log_no_request_context'
p41
tp42
sI29
(S'/Users/rliebz/Projects/osf/tests/framework_tests/test_url_mapping.py'
S'tests.framework_tests.test_url_mapping'
p43
S'RuleTestCase.test_rule_lambda_view'
tp44
sI30
(S'/Users/rliebz/Projects/osf/tests/framework_tests/test_url_mapping.py'
g43
S'RuleTestCase.test_rule_single_method'
tp45
sI31
(S'/Users/rliebz/Projects/osf/tests/framework_tests/test_url_mapping.py'
g43
S'RuleTestCase.test_rule_single_route'
tp46
sI32
(S'/Users/rliebz/Projects/osf/tests/framework_tests/test_url_mapping.py'
g43
S'RuleTestCase.test_url_for_simple'
tp47
sI33
(S'/Users/rliebz/Projects/osf/tests/framework_tests/test_url_mapping.py'
g43
S'RuleTestCase.test_url_for_with_argument'
tp48
sI34
(S'/Users/rliebz/Projects/osf/tests/framework_tests/test_url_mapping.py'
g43
S'RuleTestCase.test_url_for_with_prefix'
tp49
sI35
(S'/Users/rliebz/Projects/osf/tests/test_addons.py'
S'tests.test_addons'
p50
S'TestAddonConfig.test_deleted_defaults_to_false'
tp51
sI36
(S'/Users/rliebz/Projects/osf/tests/test_addons.py'
g50
S'TestAddonConfig.test_static_url_absolute'
tp52
sI37
(S'/Users/rliebz/Projects/osf/tests/test_addons.py'
g50
S'TestAddonConfig.test_static_url_relative'
tp53
sI38
(S'/Users/rliebz/Projects/osf/tests/test_app.py'
S'tests.test_app'
p54
S'test_attach_handlers'
p55
tp56
sI39
(S'/Users/rliebz/Projects/osf/tests/test_auth.py'
S'tests.test_auth'
p57
S'TestAuthObject.test_factory'
tp58
sI40
(S'/Users/rliebz/Projects/osf/tests/test_auth.py'
g57
S'TestAuthObject.test_from_kwargs'
tp59
sI41
(S'/Users/rliebz/Projects/osf/tests/test_auth.py'
g57
S'TestAuthObject.test_logged_in'
tp60
sI42
(S'/Users/rliebz/Projects/osf/tests/test_auth.py'
g57
S'TestAuthObject.test_repr'
tp61
sI43
(S'/Users/rliebz/Projects/osf/tests/test_auth.py'
g57
S'TestAuthUtils.test_get_user_by_id'
tp62
sI44
(S'/Users/rliebz/Projects/osf/tests/test_auth.py'
g57
S'TestAuthUtils.test_get_user_by_username'
tp63
sI45
(S'/Users/rliebz/Projects/osf/tests/test_auth.py'
g57
S'TestAuthUtils.test_get_user_with_wrong_password_returns_false'
tp64
sI46
(S'/Users/rliebz/Projects/osf/tests/test_auth.py'
g57
S'TestAuthUtils.test_login_disabled_user'
tp65
sI47
(S'/Users/rliebz/Projects/osf/tests/test_auth.py'
g57
S'TestAuthUtils.test_login_success_authenticates_user'
tp66
sI48
(S'/Users/rliebz/Projects/osf/tests/test_auth.py'
g57
S'TestAuthUtils.test_login_unregistered_user'
tp67
sI49
(S'/Users/rliebz/Projects/osf/tests/test_auth.py'
g57
S'TestAuthUtils.test_login_with_incorrect_password_returns_false'
tp68
sI50
(S'/Users/rliebz/Projects/osf/tests/test_auth.py'
g57
S'TestAuthUtils.test_register'
tp69
sI51
(S'/Users/rliebz/Projects/osf/tests/test_auth.py'
g57
S'TestAuthUtils.test_unreg_user_can_register'
tp70
sI52
(S'/Users/rliebz/Projects/osf/tests/test_auth.py'
g57
S'TestBasicAuth.test_basic_auth_returns_403'
tp71
sI53
(S'/Users/rliebz/Projects/osf/tests/test_auth.py'
g57
S'TestMustBeAddonAuthorizerDecorator.test_must_be_authorizer_false'
tp72
sI54
(S'/Users/rliebz/Projects/osf/tests/test_auth.py'
g57
S'TestMustBeAddonAuthorizerDecorator.test_must_be_authorizer_no_node_settings'
tp73
sI55
(S'/Users/rliebz/Projects/osf/tests/test_auth.py'
g57
S'TestMustBeAddonAuthorizerDecorator.test_must_be_authorizer_no_user_settings'
tp74
sI56
(S'/Users/rliebz/Projects/osf/tests/test_auth.py'
g57
S'TestMustBeAddonAuthorizerDecorator.test_must_be_authorizer_true'
tp75
sI57
(S'/Users/rliebz/Projects/osf/tests/test_auth.py'
g57
S'TestMustBeContributorDecorator.test_must_be_contributor_no_user'
tp76
sI58
(S'/Users/rliebz/Projects/osf/tests/test_auth.py'
g57
S'TestMustBeContributorDecorator.test_must_be_contributor_when_user_is_contributor'
tp77
sI59
(S'/Users/rliebz/Projects/osf/tests/test_auth.py'
g57
S'TestMustBeContributorDecorator.test_must_be_contributor_when_user_is_not_contributor_raises_error'
tp78
sI60
(S'/Users/rliebz/Projects/osf/tests/test_auth.py'
g57
S'TestMustHaveAddonDecorator.test_must_have_addon_node_false'
tp79
sI61
(S'/Users/rliebz/Projects/osf/tests/test_auth.py'
g57
S'TestMustHaveAddonDecorator.test_must_have_addon_node_true'
tp80
sI62
(S'/Users/rliebz/Projects/osf/tests/test_auth.py'
g57
S'TestMustHaveAddonDecorator.test_must_have_addon_user_false'
tp81
sI63
(S'/Users/rliebz/Projects/osf/tests/test_auth.py'
g57
S'TestMustHaveAddonDecorator.test_must_have_addon_user_true'
tp82
sI64
(S'/Users/rliebz/Projects/osf/tests/test_auth.py'
g57
S'TestPermissionDecorators.test_must_be_logged_in_decorator_with_no_user'
tp83
sI65
(S'/Users/rliebz/Projects/osf/tests/test_auth.py'
g57
S'TestPermissionDecorators.test_must_be_logged_in_decorator_with_user'
tp84
sI66
(S'/Users/rliebz/Projects/osf/tests/test_auth.py'
g57
S'TestPermissionDecorators.test_must_have_permission_false'
tp85
sI67
(S'/Users/rliebz/Projects/osf/tests/test_auth.py'
g57
S'TestPermissionDecorators.test_must_have_permission_not_logged_in'
tp86
sI68
(S'/Users/rliebz/Projects/osf/tests/test_auth.py'
g57
S'TestPermissionDecorators.test_must_have_permission_true'
tp87
sI69
(S'/Users/rliebz/Projects/osf/tests/test_auth.py'
g57
S'TestPrivateLink.test_does_not_have_key'
tp88
sI70
(S'/Users/rliebz/Projects/osf/tests/test_auth.py'
g57
S'TestPrivateLink.test_has_private_link_key'
tp89
sI71
(S'/Users/rliebz/Projects/osf/tests/test_auth_forms.py'
S'tests.test_auth_forms'
p90
S'TestValidation.test_unique_email_validator'
tp91
sI72
(S'/Users/rliebz/Projects/osf/tests/test_auth_forms.py'
g90
S'TestValidation.test_unique_email_validator_with_unreg_user'
tp92
sI73
(S'/Users/rliebz/Projects/osf/tests/test_auth_forms.py'
g90
S'test_registration_form_processing'
p93
tp94
sI74
(S'/Users/rliebz/Projects/osf/tests/test_auth_forms.py'
g90
S'test_merge_account_form_cleaning'
p95
tp96
sI75
(S'/Users/rliebz/Projects/osf/tests/test_conferences.py'
S'tests.test_conferences'
p97
S'TestConferenceEmailViews.test_conference_data'
tp98
sI76
(S'/Users/rliebz/Projects/osf/tests/test_conferences.py'
g97
S'TestConferenceEmailViews.test_conference_results'
tp99
sI77
(S'/Users/rliebz/Projects/osf/tests/test_conferences.py'
g97
S'TestConferenceIntegration.test_integration'
tp100
sI78
(S'/Users/rliebz/Projects/osf/tests/test_conferences.py'
g97
S'TestConferenceModel.test_endpoint_and_name_are_required'
tp101
sI79
(S'/Users/rliebz/Projects/osf/tests/test_conferences.py'
g97
S'TestConferenceUtils.test_get_or_create_node_exists'
tp102
sI80
(S'/Users/rliebz/Projects/osf/tests/test_conferences.py'
g97
S'TestConferenceUtils.test_get_or_create_node_title_not_exists'
tp103
sI81
(S'/Users/rliebz/Projects/osf/tests/test_conferences.py'
g97
S'TestConferenceUtils.test_get_or_create_node_user_not_exists'
tp104
sI82
(S'/Users/rliebz/Projects/osf/tests/test_conferences.py'
g97
S'TestConferenceUtils.test_get_or_create_user_exists'
tp105
sI83
(S'/Users/rliebz/Projects/osf/tests/test_conferences.py'
g97
S'TestConferenceUtils.test_get_or_create_user_is_spam'
tp106
sI84
(S'/Users/rliebz/Projects/osf/tests/test_conferences.py'
g97
S'TestConferenceUtils.test_get_or_create_user_not_exists'
tp107
sI85
(S'/Users/rliebz/Projects/osf/tests/test_conferences.py'
g97
S'TestMessage.test_attachments_count_one'
tp108
sI86
(S'/Users/rliebz/Projects/osf/tests/test_conferences.py'
g97
S'TestMessage.test_attachments_count_zero'
tp109
sI87
(S'/Users/rliebz/Projects/osf/tests/test_conferences.py'
g97
S'TestMessage.test_is_spam_false_all_headers'
tp110
sI88
(S'/Users/rliebz/Projects/osf/tests/test_conferences.py'
g97
S'TestMessage.test_is_spam_false_missing_headers'
tp111
sI89
(S'/Users/rliebz/Projects/osf/tests/test_conferences.py'
g97
S'TestMessage.test_is_spam_true_dkim'
tp112
sI90
(S'/Users/rliebz/Projects/osf/tests/test_conferences.py'
g97
S'TestMessage.test_is_spam_true_spf'
tp113
sI91
(S'/Users/rliebz/Projects/osf/tests/test_conferences.py'
g97
S'TestMessage.test_is_spam_true_sscore'
tp114
sI92
(S'/Users/rliebz/Projects/osf/tests/test_conferences.py'
g97
S'TestMessage.test_recipient'
tp115
sI93
(S'/Users/rliebz/Projects/osf/tests/test_conferences.py'
g97
S'TestMessage.test_route_invalid_pattern'
tp116
sI94
(S'/Users/rliebz/Projects/osf/tests/test_conferences.py'
g97
S'TestMessage.test_route_invalid_test'
tp117
sI95
(S'/Users/rliebz/Projects/osf/tests/test_conferences.py'
g97
S'TestMessage.test_route_valid'
tp118
sI96
(S'/Users/rliebz/Projects/osf/tests/test_conferences.py'
g97
S'TestMessage.test_sender_name'
tp119
sI97
(S'/Users/rliebz/Projects/osf/tests/test_conferences.py'
g97
S'TestMessage.test_subject'
tp120
sI98
(S'/Users/rliebz/Projects/osf/tests/test_conferences.py'
g97
S'TestMessage.test_text'
tp121
sI99
(S'/Users/rliebz/Projects/osf/tests/test_conferences.py'
g97
S'TestMessage.test_verify_signature_invalid'
tp122
sI100
(S'/Users/rliebz/Projects/osf/tests/test_conferences.py'
g97
S'TestMessage.test_verify_signature_valid'
tp123
sI101
(S'/Users/rliebz/Projects/osf/tests/test_conferences.py'
g97
S'TestProvisionNode.test_provision'
tp124
sI102
(S'/Users/rliebz/Projects/osf/tests/test_conferences.py'
g97
S'TestProvisionNode.test_provision_private'
tp125
sI103
(S'/Users/rliebz/Projects/osf/tests/test_conferences.py'
g97
S'TestProvisionNode.test_provision_spam'
tp126
sI104
(S'/Users/rliebz/Projects/osf/tests/test_conferences.py'
g97
S'TestProvisionNode.test_upload'
tp127
sI105
(S'/Users/rliebz/Projects/osf/tests/test_conferences.py'
g97
S'TestProvisionNode.test_upload_no_file_name'
tp128
sI106
(S'/Users/rliebz/Projects/osf/tests/test_contributors_views.py'
S'tests.test_contributors_views'
p129
S'TestContributorViews.test_get_contributors_from_parent'
tp130
sI107
(S'/Users/rliebz/Projects/osf/tests/test_contributors_views.py'
g129
S'TestContributorViews.test_get_contributors_no_limit'
tp131
sI108
(S'/Users/rliebz/Projects/osf/tests/test_contributors_views.py'
g129
S'TestContributorViews.test_get_contributors_with_limit'
tp132
sI109
(S'/Users/rliebz/Projects/osf/tests/test_contributors_views.py'
g129
S'TestContributorViews.test_get_most_in_common_contributors'
tp133
sI110
(S'/Users/rliebz/Projects/osf/tests/test_contributors_views.py'
g129
S'TestContributorViews.test_get_recently_added_contributors'
tp134
sI111
(S'/Users/rliebz/Projects/osf/tests/test_contributors_views.py'
g129
S'TestContributorViews.test_get_recently_added_contributors_with_limit'
tp135
sI112
(S'/Users/rliebz/Projects/osf/tests/test_elastic.py'
S'tests.test_elastic'
p136
S'TestAddContributor.test_search_firstname'
tp137
sI113
(S'/Users/rliebz/Projects/osf/tests/test_elastic.py'
g136
S'TestAddContributor.test_search_fullname'
tp138
sI114
(S'/Users/rliebz/Projects/osf/tests/test_elastic.py'
g136
S'TestAddContributor.test_search_partial'
tp139
sI115
(S'/Users/rliebz/Projects/osf/tests/test_elastic.py'
g136
S'TestAddContributor.test_unreg_users_dont_show_in_search'
tp140
sI116
(S'/Users/rliebz/Projects/osf/tests/test_elastic.py'
g136
S'TestProject.test_make_public'
tp141
sI117
(S'/Users/rliebz/Projects/osf/tests/test_elastic.py'
g136
S'TestProject.test_new_project_private'
tp142
sI118
(S'/Users/rliebz/Projects/osf/tests/test_elastic.py'
g136
S'TestPublicNodes.test_add_contributor'
tp143
sI119
(S'/Users/rliebz/Projects/osf/tests/test_elastic.py'
g136
S'TestPublicNodes.test_add_tags'
tp144
sI120
(S'/Users/rliebz/Projects/osf/tests/test_elastic.py'
g136
S'TestPublicNodes.test_change_title'
tp145
sI121
(S'/Users/rliebz/Projects/osf/tests/test_elastic.py'
g136
S'TestPublicNodes.test_clear_wiki'
tp146
sI122
(S'/Users/rliebz/Projects/osf/tests/test_elastic.py'
g136
S'TestPublicNodes.test_count_aggregation'
tp147
sI123
(S'/Users/rliebz/Projects/osf/tests/test_elastic.py'
g136
S'TestPublicNodes.test_delete_project'
tp148
sI124
(S'/Users/rliebz/Projects/osf/tests/test_elastic.py'
g136
S'TestPublicNodes.test_hide_contributor'
tp149
sI125
(S'/Users/rliebz/Projects/osf/tests/test_elastic.py'
g136
S'TestPublicNodes.test_make_parent_private'
tp150
sI126
(S'/Users/rliebz/Projects/osf/tests/test_elastic.py'
g136
S'TestPublicNodes.test_make_private'
tp151
sI127
(S'/Users/rliebz/Projects/osf/tests/test_elastic.py'
g136
S'TestPublicNodes.test_remove_contributor'
tp152
sI128
(S'/Users/rliebz/Projects/osf/tests/test_elastic.py'
g136
S'TestPublicNodes.test_remove_tag'
tp153
sI129
(S'/Users/rliebz/Projects/osf/tests/test_elastic.py'
g136
S'TestPublicNodes.test_tag_aggregation'
tp154
sI130
(S'/Users/rliebz/Projects/osf/tests/test_elastic.py'
g136
S'TestPublicNodes.test_update_wiki'
tp155
sI131
(S'/Users/rliebz/Projects/osf/tests/test_elastic.py'
g136
S'TestPublicNodes.test_wrong_order_search'
tp156
sI132
(S'/Users/rliebz/Projects/osf/tests/test_elastic.py'
g136
S'TestUserUpdate.test_change_name'
tp157
sI133
(S'/Users/rliebz/Projects/osf/tests/test_elastic.py'
g136
S'TestUserUpdate.test_disabled_user'
tp158
sI134
(S'/Users/rliebz/Projects/osf/tests/test_elastic.py'
g136
S'TestUserUpdate.test_education'
tp159
sI135
(S'/Users/rliebz/Projects/osf/tests/test_elastic.py'
g136
S'TestUserUpdate.test_employment'
tp160
sI136
(S'/Users/rliebz/Projects/osf/tests/test_elastic.py'
g136
S'TestUserUpdate.test_merged_user'
tp161
sI137
(S'/Users/rliebz/Projects/osf/tests/test_elastic.py'
g136
S'TestUserUpdate.test_name_fields'
tp162
sI138
(S'/Users/rliebz/Projects/osf/tests/test_elastic.py'
g136
S'TestUserUpdate.test_new_user'
tp163
sI139
(S'/Users/rliebz/Projects/osf/tests/test_elastic.py'
g136
S'TestUserUpdate.test_new_user_unconfirmed'
tp164
sI140
(S'/Users/rliebz/Projects/osf/tests/test_mailchimp.py'
S'tests.test_mailchimp'
p165
S'TestMailChimpHelpers.test_get_list_id_from_name'
tp166
sI141
(S'/Users/rliebz/Projects/osf/tests/test_mailchimp.py'
g165
S'TestMailChimpHelpers.test_get_list_name_from_id'
tp167
sI142
(S'/Users/rliebz/Projects/osf/tests/test_mailchimp.py'
g165
S'TestMailChimpHelpers.test_subscribe_called_with_correct_arguments'
tp168
sI143
(S'/Users/rliebz/Projects/osf/tests/test_mailchimp.py'
g165
S'TestMailChimpHelpers.test_unsubscribe_called_with_correct_arguments'
tp169
sI144
(S'/Users/rliebz/Projects/osf/tests/test_mails.py'
S'tests.test_mails'
p170
S'test_plain_mail'
p171
tp172
sI145
(S'/Users/rliebz/Projects/osf/tests/test_mails.py'
g170
S'test_html_mail'
p173
tp174
sI146
(S'/Users/rliebz/Projects/osf/tests/test_mails.py'
g170
S'test_send_mail'
p175
tp176
sI147
(S'/Users/rliebz/Projects/osf/tests/test_metadata.py'
S'tests.test_metadata'
p177
S'TestMetaData.test_ensure_schemas'
tp178
sI148
(S'/Users/rliebz/Projects/osf/tests/test_metadata.py'
g177
S'TestMetaData.test_process'
tp179
sI149
(S'/Users/rliebz/Projects/osf/tests/test_metadata.py'
g177
S'TestMetaData.test_process_list'
tp180
sI150
(S'/Users/rliebz/Projects/osf/tests/test_metadata.py'
g177
S'TestMetaData.test_process_whitespace'
tp181
sI151
(S'/Users/rliebz/Projects/osf/tests/test_models.py'
S'tests.test_models'
p182
S'TestAddonCallbacks.test_fork_callback'
tp183
sI152
(S'/Users/rliebz/Projects/osf/tests/test_models.py'
g182
S'TestAddonCallbacks.test_register_callback'
tp184
sI153
(S'/Users/rliebz/Projects/osf/tests/test_models.py'
g182
S'TestAddonCallbacks.test_remove_contributor_callback'
tp185
sI154
(S'/Users/rliebz/Projects/osf/tests/test_models.py'
g182
S'TestAddonCallbacks.test_set_privacy_callback'
tp186
sI155
(S'/Users/rliebz/Projects/osf/tests/test_models.py'
g182
S'TestApiKey.test_factory'
tp187
sI156
(S'/Users/rliebz/Projects/osf/tests/test_models.py'
g182
S'TestComments.test_create'
tp188
sI157
(S'/Users/rliebz/Projects/osf/tests/test_models.py'
g182
S'TestComments.test_delete'
tp189
sI158
(S'/Users/rliebz/Projects/osf/tests/test_models.py'
g182
S'TestComments.test_edit'
tp190
sI159
(S'/Users/rliebz/Projects/osf/tests/test_models.py'
g182
S'TestComments.test_report_abuse'
tp191
sI160
(S'/Users/rliebz/Projects/osf/tests/test_models.py'
g182
S'TestComments.test_report_abuse_own_comment'
tp192
sI161
(S'/Users/rliebz/Projects/osf/tests/test_models.py'
g182
S'TestComments.test_undelete'
tp193
sI162
(S'/Users/rliebz/Projects/osf/tests/test_models.py'
g182
S'TestComments.test_unreport_abuse'
tp194
sI163
(S'/Users/rliebz/Projects/osf/tests/test_models.py'
g182
S'TestComments.test_unreport_abuse_not_reporter'
tp195
sI164
(S'/Users/rliebz/Projects/osf/tests/test_models.py'
g182
S'TestComments.test_validate_reports_bad_key'
tp196
sI165
(S'/Users/rliebz/Projects/osf/tests/test_models.py'
g182
S'TestComments.test_validate_reports_bad_type'
tp197
sI166
(S'/Users/rliebz/Projects/osf/tests/test_models.py'
g182
S'TestComments.test_validate_reports_bad_value'
tp198
sI167
(S'/Users/rliebz/Projects/osf/tests/test_models.py'
g182
S'TestContributorVisibility.test_get_visible_false'
tp199
sI168
(S'/Users/rliebz/Projects/osf/tests/test_models.py'
g182
S'TestContributorVisibility.test_get_visible_true'
tp200
sI169
(S'/Users/rliebz/Projects/osf/tests/test_models.py'
g182
S'TestContributorVisibility.test_make_invisible'
tp201
sI170
(S'/Users/rliebz/Projects/osf/tests/test_models.py'
g182
S'TestContributorVisibility.test_make_visible'
tp202
sI171
(S'/Users/rliebz/Projects/osf/tests/test_models.py'
g182
S'TestContributorVisibility.test_set_visible_missing'
tp203
sI172
(S'/Users/rliebz/Projects/osf/tests/test_models.py'
g182
S'TestDashboard.test_can_remove_empty_folder'
tp204
sI173
(S'/Users/rliebz/Projects/osf/tests/test_models.py'
g182
S'TestDashboard.test_can_remove_folder_structure'
tp205
sI174
(S'/Users/rliebz/Projects/osf/tests/test_models.py'
g182
S'TestDashboard.test_cannot_have_two_dashboards'
tp206
sI175
(S'/Users/rliebz/Projects/osf/tests/test_models.py'
g182
S'TestDashboard.test_cannot_link_to_dashboard'
tp207
sI176
(S'/Users/rliebz/Projects/osf/tests/test_models.py'
g182
S'TestDashboard.test_cannot_remove_dashboard'
tp208
sI177
(S'/Users/rliebz/Projects/osf/tests/test_models.py'
g182
S'TestDashboard.test_dashboard_is_dashboard'
tp209
sI178
(S'/Users/rliebz/Projects/osf/tests/test_models.py'
g182
S'TestDashboard.test_dashboard_is_folder'
tp210
sI179
(S'/Users/rliebz/Projects/osf/tests/test_models.py'
g182
S'TestDeleteNodeWiki.test_delete_log'
tp211
sI180
(S'/Users/rliebz/Projects/osf/tests/test_models.py'
g182
S'TestDeleteNodeWiki.test_delete_log_specifics'
tp212
sI181
(S'/Users/rliebz/Projects/osf/tests/test_models.py'
g182
S'TestDeleteNodeWiki.test_deleted_versions'
tp213
sI182
(S'/Users/rliebz/Projects/osf/tests/test_models.py'
g182
S'TestDeleteNodeWiki.test_wiki_delete'
tp214
sI183
(S'/Users/rliebz/Projects/osf/tests/test_models.py'
g182
S'TestDeleteNodeWiki.test_wiki_versions'
tp215
sI184
(S'/Users/rliebz/Projects/osf/tests/test_models.py'
g182
S'TestDisablingUsers.test_disabled_user'
tp216
sI185
(S'/Users/rliebz/Projects/osf/tests/test_models.py'
g182
S'TestDisablingUsers.test_reenabled_user'
tp217
sI186
(S'/Users/rliebz/Projects/osf/tests/test_models.py'
g182
S'TestDisablingUsers.test_user_enabled_by_default'
tp218
sI187
(S'/Users/rliebz/Projects/osf/tests/test_models.py'
g182
S'TestForkNode.test_can_fork_public_node'
tp219
sI188
(S'/Users/rliebz/Projects/osf/tests/test_models.py'
g182
S'TestForkNode.test_cannot_fork_private_node'
tp220
sI189
(S'/Users/rliebz/Projects/osf/tests/test_models.py'
g182
S'TestForkNode.test_contributor_can_fork'
tp221
sI190
(S'/Users/rliebz/Projects/osf/tests/test_models.py'
g182
S'TestForkNode.test_fork_not_public'
tp222
sI191
(S'/Users/rliebz/Projects/osf/tests/test_models.py'
g182
S'TestForkNode.test_fork_private_children'
tp223
sI192
(S'/Users/rliebz/Projects/osf/tests/test_models.py'
g182
S'TestForkNode.test_fork_recursion'
tp224
sI193
(S'/Users/rliebz/Projects/osf/tests/test_models.py'
g182
S'TestForkNode.test_fork_registration'
tp225
sI194
(S'/Users/rliebz/Projects/osf/tests/test_models.py'
g182
S'TestForkNode.test_not_fork_private_link'
tp226
sI195
(S'/Users/rliebz/Projects/osf/tests/test_models.py'
g182
S'TestGUID.test_guid'
tp227
sI196
(S'/Users/rliebz/Projects/osf/tests/test_models.py'
g182
S'TestMergingUsers.test_adding_merged_user_as_contributor_adds_master'
tp228
sI197
(S'/Users/rliebz/Projects/osf/tests/test_models.py'
g182
S'TestMergingUsers.test_dupe_email_is_appended'
tp229
sI198
(S'/Users/rliebz/Projects/osf/tests/test_models.py'
g182
S'TestMergingUsers.test_dupe_is_merged'
tp230
sI199
(S'/Users/rliebz/Projects/osf/tests/test_models.py'
g182
S'TestMergingUsers.test_inherits_projects_contributed_by_dupe'
tp231
sI200
(S'/Users/rliebz/Projects/osf/tests/test_models.py'
g182
S'TestMergingUsers.test_inherits_projects_created_by_dupe'
tp232
sI201
(S'/Users/rliebz/Projects/osf/tests/test_models.py'
g182
S'TestMergingUsers.test_merging_dupe_who_is_contributor_on_same_projects'
tp233
sI202
(S'/Users/rliebz/Projects/osf/tests/test_models.py'
g182
S'TestNode.test_add_addon'
tp234
sI203
(S'/Users/rliebz/Projects/osf/tests/test_models.py'
g182
S'TestNode.test_add_existing_addon'
tp235
sI204
(S'/Users/rliebz/Projects/osf/tests/test_models.py'
g182
S'TestNode.test_add_file'
tp236
sI205
(S'/Users/rliebz/Projects/osf/tests/test_models.py'
g182
S'TestNode.test_add_pointer'
tp237
sI206
(S'/Users/rliebz/Projects/osf/tests/test_models.py'
g182
S'TestNode.test_add_pointer_already_present'
tp238
sI207
(S'/Users/rliebz/Projects/osf/tests/test_models.py'
g182
S'TestNode.test_api_url_for'
tp239
sI208
(S'/Users/rliebz/Projects/osf/tests/test_models.py'
g182
S'TestNode.test_cannot_link_to_folder_more_than_once'
tp240
sI209
(S'/Users/rliebz/Projects/osf/tests/test_models.py'
g182
S'TestNode.test_cant_add_component_to_component'
tp241
sI210
(S'/Users/rliebz/Projects/osf/tests/test_models.py'
g182
S'TestNode.test_category_display'
tp242
sI211
(S'/Users/rliebz/Projects/osf/tests/test_models.py'
g182
S'TestNode.test_collapse_sets_false_with_user'
tp243
sI212
(S'/Users/rliebz/Projects/osf/tests/test_models.py'
g182
S'TestNode.test_delete_addon'
tp244
sI213
(S'/Users/rliebz/Projects/osf/tests/test_models.py'
g182
S'TestNode.test_delete_mandatory_addon'
tp245
sI214
(S'/Users/rliebz/Projects/osf/tests/test_models.py'
g182
S'TestNode.test_delete_nonexistent_addon'
tp246
sI215
(S'/Users/rliebz/Projects/osf/tests/test_models.py'
g182
S'TestNode.test_expand_sets_true_with_user'
tp247
sI216
(S'/Users/rliebz/Projects/osf/tests/test_models.py'
g182
S'TestNode.test_fork_pointer_component'
tp248
sI217
(S'/Users/rliebz/Projects/osf/tests/test_models.py'
g182
S'TestNode.test_fork_pointer_not_present'
tp249
sI218
(S'/Users/rliebz/Projects/osf/tests/test_models.py'
g182
S'TestNode.test_fork_pointer_project'
tp250
sI219
(S'/Users/rliebz/Projects/osf/tests/test_models.py'
g182
S'TestNode.test_get_points_exclude_deleted'
tp251
sI220
(S'/Users/rliebz/Projects/osf/tests/test_models.py'
g182
S'TestNode.test_get_points_exclude_folders'
tp252
sI221
(S'/Users/rliebz/Projects/osf/tests/test_models.py'
g182
S'TestNode.test_in_parent_nodes'
tp253
sI222
(S'/Users/rliebz/Projects/osf/tests/test_models.py'
g182
S'TestNode.test_is_expanded_default_false_with_user'
tp254
sI223
(S'/Users/rliebz/Projects/osf/tests/test_models.py'
g182
S'TestNode.test_log'
tp255
sI224
(S'/Users/rliebz/Projects/osf/tests/test_models.py'
g182
S'TestNode.test_node_factory'
tp256
sI225
(S'/Users/rliebz/Projects/osf/tests/test_models.py'
g182
S'TestNode.test_not_a_dashboard'
tp257
sI226
(S'/Users/rliebz/Projects/osf/tests/test_models.py'
g182
S'TestNode.test_not_a_folder'
tp258
sI227
(S'/Users/rliebz/Projects/osf/tests/test_models.py'
g182
S'TestNode.test_parent'
tp259
sI228
(S'/Users/rliebz/Projects/osf/tests/test_models.py'
g182
S'TestNode.test_parent_id'
tp260
sI229
(S'/Users/rliebz/Projects/osf/tests/test_models.py'
g182
S'TestNode.test_rm_pointer'
tp261
sI230
(S'/Users/rliebz/Projects/osf/tests/test_models.py'
g182
S'TestNode.test_rm_pointer_not_present'
tp262
sI231
(S'/Users/rliebz/Projects/osf/tests/test_models.py'
g182
S'TestNode.test_url'
tp263
sI232
(S'/Users/rliebz/Projects/osf/tests/test_models.py'
g182
S'TestNode.test_validate_categories'
tp264
sI233
(S'/Users/rliebz/Projects/osf/tests/test_models.py'
g182
S'TestNode.test_watch_url'
tp265
sI234
(S'/Users/rliebz/Projects/osf/tests/test_models.py'
g182
S'TestNode.test_web_url_for'
tp266
sI235
(S'/Users/rliebz/Projects/osf/tests/test_models.py'
g182
S'TestNodeFile.test_clean'
tp267
sI236
(S'/Users/rliebz/Projects/osf/tests/test_models.py'
g182
S'TestNodeFile.test_download_url'
tp268
sI237
(S'/Users/rliebz/Projects/osf/tests/test_models.py'
g182
S'TestNodeFile.test_latest_version_number'
tp269
sI238
(S'/Users/rliebz/Projects/osf/tests/test_models.py'
g182
S'TestNodeFile.test_url'
tp270
sI239
(S'/Users/rliebz/Projects/osf/tests/test_models.py'
g182
S'TestNodeLog.test_can_view'
tp271
sI240
(S'/Users/rliebz/Projects/osf/tests/test_models.py'
g182
S'TestNodeLog.test_can_view_with_non_related_project_arg'
tp272
sI241
(S'/Users/rliebz/Projects/osf/tests/test_models.py'
g182
S'TestNodeLog.test_formatted_date'
tp273
sI242
(S'/Users/rliebz/Projects/osf/tests/test_models.py'
g182
S'TestNodeLog.test_node_log_factory'
tp274
sI243
(S'/Users/rliebz/Projects/osf/tests/test_models.py'
g182
S'TestNodeLog.test_render_log_contributor_none'
tp275
sI244
(S'/Users/rliebz/Projects/osf/tests/test_models.py'
g182
S'TestNodeLog.test_render_log_contributor_unregistered'
tp276
sI245
(S'/Users/rliebz/Projects/osf/tests/test_models.py'
g182
S'TestNodeLog.test_repr'
tp277
sI246
(S'/Users/rliebz/Projects/osf/tests/test_models.py'
g182
S'TestNodeLog.test_resolve_node_fork_of_self_in_nodes_list'
tp278
sI247
(S'/Users/rliebz/Projects/osf/tests/test_models.py'
g182
S'TestNodeLog.test_resolve_node_fork_of_self_node'
tp279
sI248
(S'/Users/rliebz/Projects/osf/tests/test_models.py'
g182
S'TestNodeLog.test_resolve_node_in_nodes_list'
tp280
sI249
(S'/Users/rliebz/Projects/osf/tests/test_models.py'
g182
S'TestNodeLog.test_resolve_node_same_as_self_node'
tp281
sI250
(S'/Users/rliebz/Projects/osf/tests/test_models.py'
g182
S'TestNodeLog.test_tz_date'
tp282
sI251
(S'/Users/rliebz/Projects/osf/tests/test_models.py'
g182
S'TestNodeWikiPage.test_factory'
tp283
sI252
(S'/Users/rliebz/Projects/osf/tests/test_models.py'
g182
S'TestNodeWikiPage.test_url'
tp284
sI253
(S'/Users/rliebz/Projects/osf/tests/test_models.py'
g182
S'TestPermissions.test_add_permission'
tp285
sI254
(S'/Users/rliebz/Projects/osf/tests/test_models.py'
g182
S'TestPermissions.test_add_permission_already_granted'
tp286
sI255
(S'/Users/rliebz/Projects/osf/tests/test_models.py'
g182
S'TestPermissions.test_adjust_permissions'
tp287
sI256
(S'/Users/rliebz/Projects/osf/tests/test_models.py'
g182
S'TestPermissions.test_default_contributor_permissions'
tp288
sI257
(S'/Users/rliebz/Projects/osf/tests/test_models.py'
g182
S'TestPermissions.test_default_creator_permissions'
tp289
sI258
(S'/Users/rliebz/Projects/osf/tests/test_models.py'
g182
S'TestPermissions.test_has_permission_false'
tp290
sI259
(S'/Users/rliebz/Projects/osf/tests/test_models.py'
g182
S'TestPermissions.test_has_permission_not_in_dict'
tp291
sI260
(S'/Users/rliebz/Projects/osf/tests/test_models.py'
g182
S'TestPermissions.test_has_permission_true'
tp292
sI261
(S'/Users/rliebz/Projects/osf/tests/test_models.py'
g182
S'TestPermissions.test_remove_permission'
tp293
sI262
(S'/Users/rliebz/Projects/osf/tests/test_models.py'
g182
S'TestPermissions.test_remove_permission_not_granted'
tp294
sI263
(S'/Users/rliebz/Projects/osf/tests/test_models.py'
g182
S'TestPointer.test_clone'
tp295
sI264
(S'/Users/rliebz/Projects/osf/tests/test_models.py'
g182
S'TestPointer.test_clone_no_node'
tp296
sI265
(S'/Users/rliebz/Projects/osf/tests/test_models.py'
g182
S'TestPointer.test_contributors'
tp297
sI266
(S'/Users/rliebz/Projects/osf/tests/test_models.py'
g182
S'TestPointer.test_fork'
tp298
sI267
(S'/Users/rliebz/Projects/osf/tests/test_models.py'
g182
S'TestPointer.test_get_pointer_parent'
tp299
sI268
(S'/Users/rliebz/Projects/osf/tests/test_models.py'
g182
S'TestPointer.test_has_pointers_recursive_false'
tp300
sI269
(S'/Users/rliebz/Projects/osf/tests/test_models.py'
g182
S'TestPointer.test_has_pointers_recursive_true'
tp301
sI270
(S'/Users/rliebz/Projects/osf/tests/test_models.py'
g182
S'TestPointer.test_register'
tp302
sI271
(S'/Users/rliebz/Projects/osf/tests/test_models.py'
g182
S'TestPointer.test_register_with_pointer_to_registration'
tp303
sI272
(S'/Users/rliebz/Projects/osf/tests/test_models.py'
g182
S'TestPointer.test_title'
tp304
sI273
(S'/Users/rliebz/Projects/osf/tests/test_models.py'
g182
S'TestPrivateLink.test_node_scale'
tp305
sI274
(S'/Users/rliebz/Projects/osf/tests/test_models.py'
g182
S'TestPrivateLink.test_node_scale_with_deleted_parent'
tp306
sI275
(S'/Users/rliebz/Projects/osf/tests/test_models.py'
g182
S'TestPrivateLink.test_to_json_nodes_with_deleted_parent'
tp307
sI276
(S'/Users/rliebz/Projects/osf/tests/test_models.py'
g182
S'TestProject.test_add_contributor'
tp308
sI277
(S'/Users/rliebz/Projects/osf/tests/test_models.py'
g182
S'TestProject.test_add_contributors'
tp309
sI278
(S'/Users/rliebz/Projects/osf/tests/test_models.py'
g182
S'TestProject.test_add_private_link'
tp310
sI279
(S'/Users/rliebz/Projects/osf/tests/test_models.py'
g182
S'TestProject.test_add_unregistered_adds_new_unclaimed_record_if_user_already_in_db'
tp311
sI280
(S'/Users/rliebz/Projects/osf/tests/test_models.py'
g182
S'TestProject.test_add_unregistered_contributor'
tp312
sI281
(S'/Users/rliebz/Projects/osf/tests/test_models.py'
g182
S'TestProject.test_add_unregistered_raises_error_if_user_is_registered'
tp313
sI282
(S'/Users/rliebz/Projects/osf/tests/test_models.py'
g182
S'TestProject.test_api_url'
tp314
sI283
(S'/Users/rliebz/Projects/osf/tests/test_models.py'
g182
S'TestProject.test_can_edit_can_be_passed_a_user'
tp315
sI284
(S'/Users/rliebz/Projects/osf/tests/test_models.py'
g182
S'TestProject.test_can_view_private'
tp316
sI285
(S'/Users/rliebz/Projects/osf/tests/test_models.py'
g182
S'TestProject.test_can_view_public'
tp317
sI286
(S'/Users/rliebz/Projects/osf/tests/test_models.py'
g182
S'TestProject.test_cant_add_creator_as_contributor_twice'
tp318
sI287
(S'/Users/rliebz/Projects/osf/tests/test_models.py'
g182
S'TestProject.test_cant_add_same_contributor_twice'
tp319
sI288
(S'/Users/rliebz/Projects/osf/tests/test_models.py'
g182
S'TestProject.test_contributor_can_edit'
tp320
sI289
(S'/Users/rliebz/Projects/osf/tests/test_models.py'
g182
S'TestProject.test_creator_can_edit'
tp321
sI290
(S'/Users/rliebz/Projects/osf/tests/test_models.py'
g182
S'TestProject.test_creator_cannot_edit_project_if_they_are_removed'
tp322
sI291
(S'/Users/rliebz/Projects/osf/tests/test_models.py'
g182
S'TestProject.test_creator_is_contributor'
tp323
sI292
(S'/Users/rliebz/Projects/osf/tests/test_models.py'
g182
S'TestProject.test_date_modified'
tp324
sI293
(S'/Users/rliebz/Projects/osf/tests/test_models.py'
g182
S'TestProject.test_get_recent_logs'
tp325
sI294
(S'/Users/rliebz/Projects/osf/tests/test_models.py'
g182
S'TestProject.test_has_anonymous_link'
tp326
sI295
(S'/Users/rliebz/Projects/osf/tests/test_models.py'
g182
S'TestProject.test_is_contributor'
tp327
sI296
(S'/Users/rliebz/Projects/osf/tests/test_models.py'
g182
S'TestProject.test_is_contributor_unregistered'
tp328
sI297
(S'/Users/rliebz/Projects/osf/tests/test_models.py'
g182
S'TestProject.test_is_fork_of'
tp329
sI298
(S'/Users/rliebz/Projects/osf/tests/test_models.py'
g182
S'TestProject.test_is_fork_of_false'
tp330
sI299
(S'/Users/rliebz/Projects/osf/tests/test_models.py'
g182
S'TestProject.test_is_fork_of_no_forked_from'
tp331
sI300
(S'/Users/rliebz/Projects/osf/tests/test_models.py'
g182
S'TestProject.test_is_registration_of'
tp332
sI301
(S'/Users/rliebz/Projects/osf/tests/test_models.py'
g182
S'TestProject.test_is_registration_of_false'
tp333
sI302
(S'/Users/rliebz/Projects/osf/tests/test_models.py'
g182
S'TestProject.test_is_registration_of_no_registered_from'
tp334
sI303
(S'/Users/rliebz/Projects/osf/tests/test_models.py'
g182
S'TestProject.test_log'
tp335
sI304
(S'/Users/rliebz/Projects/osf/tests/test_models.py'
g182
S'TestProject.test_manage_contributors_cannot_remove_last_admin_contributor'
tp336
sI305
(S'/Users/rliebz/Projects/osf/tests/test_models.py'
g182
S'TestProject.test_manage_contributors_logs_when_users_reorder'
tp337
sI306
(S'/Users/rliebz/Projects/osf/tests/test_models.py'
g182
S'TestProject.test_manage_contributors_new_contributor'
tp338
sI307
(S'/Users/rliebz/Projects/osf/tests/test_models.py'
g182
S'TestProject.test_manage_contributors_no_admins'
tp339
sI308
(S'/Users/rliebz/Projects/osf/tests/test_models.py'
g182
S'TestProject.test_manage_contributors_no_contributors'
tp340
sI309
(S'/Users/rliebz/Projects/osf/tests/test_models.py'
g182
S'TestProject.test_manage_contributors_no_registered_admins'
tp341
sI310
(S'/Users/rliebz/Projects/osf/tests/test_models.py'
g182
S'TestProject.test_no_parent'
tp342
sI311
(S'/Users/rliebz/Projects/osf/tests/test_models.py'
g182
S'TestProject.test_noncontributor_cant_edit_public'
tp343
sI312
(S'/Users/rliebz/Projects/osf/tests/test_models.py'
g182
S'TestProject.test_parent_id'
tp344
sI313
(S'/Users/rliebz/Projects/osf/tests/test_models.py'
g182
S'TestProject.test_project_factory'
tp345
sI314
(S'/Users/rliebz/Projects/osf/tests/test_models.py'
g182
S'TestProject.test_remove_contributor'
tp346
sI315
(S'/Users/rliebz/Projects/osf/tests/test_models.py'
g182
S'TestProject.test_remove_unregistered_conributor_removes_unclaimed_record'
tp347
sI316
(S'/Users/rliebz/Projects/osf/tests/test_models.py'
g182
S'TestProject.test_replace_contributor'
tp348
sI317
(S'/Users/rliebz/Projects/osf/tests/test_models.py'
g182
S'TestProject.test_repr'
tp349
sI318
(S'/Users/rliebz/Projects/osf/tests/test_models.py'
g182
S'TestProject.test_set_description'
tp350
sI319
(S'/Users/rliebz/Projects/osf/tests/test_models.py'
g182
S'TestProject.test_set_privacy'
tp351
sI320
(S'/Users/rliebz/Projects/osf/tests/test_models.py'
g182
S'TestProject.test_set_title_fails_if_empty_or_whitespace'
tp352
sI321
(S'/Users/rliebz/Projects/osf/tests/test_models.py'
g182
S'TestProject.test_set_title_works_with_valid_title'
tp353
sI322
(S'/Users/rliebz/Projects/osf/tests/test_models.py'
g182
S'TestProject.test_title_cant_be_empty'
tp354
sI323
(S'/Users/rliebz/Projects/osf/tests/test_models.py'
g182
S'TestProject.test_url'
tp355
sI324
(S'/Users/rliebz/Projects/osf/tests/test_models.py'
g182
S'TestProject.test_watch_url'
tp356
sI325
(S'/Users/rliebz/Projects/osf/tests/test_models.py'
g182
S'TestProject.test_watching'
tp357
sI326
(S'/Users/rliebz/Projects/osf/tests/test_models.py'
g182
S'TestProjectWithAddons.test_factory'
tp358
sI327
(S'/Users/rliebz/Projects/osf/tests/test_models.py'
g182
S'TestRegisterNode.test_category'
tp359
sI328
(S'/Users/rliebz/Projects/osf/tests/test_models.py'
g182
S'TestRegisterNode.test_contributors'
tp360
sI329
(S'/Users/rliebz/Projects/osf/tests/test_models.py'
g182
S'TestRegisterNode.test_creator'
tp361
sI330
(S'/Users/rliebz/Projects/osf/tests/test_models.py'
g182
S'TestRegisterNode.test_description'
tp362
sI331
(S'/Users/rliebz/Projects/osf/tests/test_models.py'
g182
S'TestRegisterNode.test_factory'
tp363
sI332
(S'/Users/rliebz/Projects/osf/tests/test_models.py'
g182
S'TestRegisterNode.test_forked_from'
tp364
sI333
(S'/Users/rliebz/Projects/osf/tests/test_models.py'
g182
S'TestRegisterNode.test_is_registration'
tp365
sI334
(S'/Users/rliebz/Projects/osf/tests/test_models.py'
g182
S'TestRegisterNode.test_logs'
tp366
sI335
(S'/Users/rliebz/Projects/osf/tests/test_models.py'
g182
S'TestRegisterNode.test_nodes'
tp367
sI336
(S'/Users/rliebz/Projects/osf/tests/test_models.py'
g182
S'TestRegisterNode.test_partial_contributor_registration'
tp368
sI337
(S'/Users/rliebz/Projects/osf/tests/test_models.py'
g182
S'TestRegisterNode.test_permissions'
tp369
sI338
(S'/Users/rliebz/Projects/osf/tests/test_models.py'
g182
S'TestRegisterNode.test_private_links'
tp370
sI339
(S'/Users/rliebz/Projects/osf/tests/test_models.py'
g182
S'TestRegisterNode.test_registered_addons'
tp371
sI340
(S'/Users/rliebz/Projects/osf/tests/test_models.py'
g182
S'TestRegisterNode.test_registered_date'
tp372
sI341
(S'/Users/rliebz/Projects/osf/tests/test_models.py'
g182
S'TestRegisterNode.test_registered_from'
tp373
sI342
(S'/Users/rliebz/Projects/osf/tests/test_models.py'
g182
S'TestRegisterNode.test_registered_meta'
tp374
sI343
(S'/Users/rliebz/Projects/osf/tests/test_models.py'
g182
S'TestRegisterNode.test_registered_user'
tp375
sI344
(S'/Users/rliebz/Projects/osf/tests/test_models.py'
g182
S'TestRegisterNode.test_registration_list'
tp376
sI345
(S'/Users/rliebz/Projects/osf/tests/test_models.py'
g182
S'TestRegisterNode.test_registration_log'
tp377
sI346
(S'/Users/rliebz/Projects/osf/tests/test_models.py'
g182
S'TestRegisterNode.test_tags'
tp378
sI347
(S'/Users/rliebz/Projects/osf/tests/test_models.py'
g182
S'TestRegisterNode.test_title'
tp379
sI348
(S'/Users/rliebz/Projects/osf/tests/test_models.py'
g182
S'TestRemoveNode.test_delete_project_log_present'
tp380
sI349
(S'/Users/rliebz/Projects/osf/tests/test_models.py'
g182
S'TestRemoveNode.test_remove_project_with_component_child_fails'
tp381
sI350
(S'/Users/rliebz/Projects/osf/tests/test_models.py'
g182
S'TestRemoveNode.test_remove_project_with_pointer_child'
tp382
sI351
(S'/Users/rliebz/Projects/osf/tests/test_models.py'
g182
S'TestRemoveNode.test_remove_project_with_project_child_fails'
tp383
sI352
(S'/Users/rliebz/Projects/osf/tests/test_models.py'
g182
S'TestRemoveNode.test_remove_project_without_children'
tp384
sI353
(S'/Users/rliebz/Projects/osf/tests/test_models.py'
g182
S'TestRenameNodeWiki.test_rename_cannot_rename'
tp385
sI354
(S'/Users/rliebz/Projects/osf/tests/test_models.py'
g182
S'TestRenameNodeWiki.test_rename_existing_deleted_page'
tp386
sI355
(S'/Users/rliebz/Projects/osf/tests/test_models.py'
g182
S'TestRenameNodeWiki.test_rename_log'
tp387
sI356
(S'/Users/rliebz/Projects/osf/tests/test_models.py'
g182
S'TestRenameNodeWiki.test_rename_log_specifics'
tp388
sI357
(S'/Users/rliebz/Projects/osf/tests/test_models.py'
g182
S'TestRenameNodeWiki.test_rename_name_maximum_length'
tp389
sI358
(S'/Users/rliebz/Projects/osf/tests/test_models.py'
g182
S'TestRenameNodeWiki.test_rename_name_not_found'
tp390
sI359
(S'/Users/rliebz/Projects/osf/tests/test_models.py'
g182
S'TestRenameNodeWiki.test_rename_new_name_invalid_none_or_blank'
tp391
sI360
(S'/Users/rliebz/Projects/osf/tests/test_models.py'
g182
S'TestRenameNodeWiki.test_rename_new_name_invalid_special_characters'
tp392
sI361
(S'/Users/rliebz/Projects/osf/tests/test_models.py'
g182
S'TestRenameNodeWiki.test_rename_page'
tp393
sI362
(S'/Users/rliebz/Projects/osf/tests/test_models.py'
g182
S'TestRenameNodeWiki.test_rename_page_case_sensitive'
tp394
sI363
(S'/Users/rliebz/Projects/osf/tests/test_models.py'
g182
S'TestRenameNodeWiki.test_rename_page_conflict'
tp395
sI364
(S'/Users/rliebz/Projects/osf/tests/test_models.py'
g182
S'TestRenameNodeWiki.test_rename_page_not_found'
tp396
sI365
(S'/Users/rliebz/Projects/osf/tests/test_models.py'
g182
S'TestTags.test_add_tag'
tp397
sI366
(S'/Users/rliebz/Projects/osf/tests/test_models.py'
g182
S'TestTags.test_add_tag_too_long'
tp398
sI367
(S'/Users/rliebz/Projects/osf/tests/test_models.py'
g182
S'TestTags.test_remove_tag'
tp399
sI368
(S'/Users/rliebz/Projects/osf/tests/test_models.py'
g182
S'TestTags.test_remove_tag_not_present'
tp400
sI369
(S'/Users/rliebz/Projects/osf/tests/test_models.py'
g182
S'TestTemplateNode.test_complex_template'
tp401
sI370
(S'/Users/rliebz/Projects/osf/tests/test_models.py'
g182
S'TestTemplateNode.test_complex_template_titles_changed'
tp402
sI371
(S'/Users/rliebz/Projects/osf/tests/test_models.py'
g182
S'TestTemplateNode.test_simple_template'
tp403
sI372
(S'/Users/rliebz/Projects/osf/tests/test_models.py'
g182
S'TestTemplateNode.test_simple_template_title_changed'
tp404
sI373
(S'/Users/rliebz/Projects/osf/tests/test_models.py'
g182
S'TestTemplateNode.test_template_piwik_site_id_not_copied'
tp405
sI374
(S'/Users/rliebz/Projects/osf/tests/test_models.py'
g182
S'TestTemplateNode.test_template_security'
tp406
sI375
(S'/Users/rliebz/Projects/osf/tests/test_models.py'
g182
S'TestTemplateNode.test_template_wiki_pages_not_copied'
tp407
sI376
(S'/Users/rliebz/Projects/osf/tests/test_models.py'
g182
S'TestUnregisteredUser.test_add_unclaimed_record'
tp408
sI377
(S'/Users/rliebz/Projects/osf/tests/test_models.py'
g182
S'TestUnregisteredUser.test_cant_add_unclaimed_record_if_referrer_isnt_contributor'
tp409
sI378
(S'/Users/rliebz/Projects/osf/tests/test_models.py'
g182
S'TestUnregisteredUser.test_claim_contributor'
tp410
sI379
(S'/Users/rliebz/Projects/osf/tests/test_models.py'
g182
S'TestUnregisteredUser.test_get_claim_url'
tp411
sI380
(S'/Users/rliebz/Projects/osf/tests/test_models.py'
g182
S'TestUnregisteredUser.test_get_claim_url_raises_value_error_if_not_valid_pid'
tp412
sI381
(S'/Users/rliebz/Projects/osf/tests/test_models.py'
g182
S'TestUnregisteredUser.test_register'
tp413
sI382
(S'/Users/rliebz/Projects/osf/tests/test_models.py'
g182
S'TestUnregisteredUser.test_registering_with_a_different_email_adds_to_emails_list'
tp414
sI383
(S'/Users/rliebz/Projects/osf/tests/test_models.py'
g182
S'TestUnregisteredUser.test_unconfirmed_factory'
tp415
sI384
(S'/Users/rliebz/Projects/osf/tests/test_models.py'
g182
S'TestUnregisteredUser.test_unregistered_factory'
tp416
sI385
(S'/Users/rliebz/Projects/osf/tests/test_models.py'
g182
S'TestUnregisteredUser.test_verify_claim_token'
tp417
sI386
(S'/Users/rliebz/Projects/osf/tests/test_models.py'
g182
S'TestUpdateNodeWiki.test_current'
tp418
sI387
(S'/Users/rliebz/Projects/osf/tests/test_models.py'
g182
S'TestUpdateNodeWiki.test_default_is_current'
tp419
sI388
(S'/Users/rliebz/Projects/osf/tests/test_models.py'
g182
S'TestUpdateNodeWiki.test_default_wiki'
tp420
sI389
(S'/Users/rliebz/Projects/osf/tests/test_models.py'
g182
S'TestUpdateNodeWiki.test_update_log'
tp421
sI390
(S'/Users/rliebz/Projects/osf/tests/test_models.py'
g182
S'TestUpdateNodeWiki.test_update_log_specifics'
tp422
sI391
(S'/Users/rliebz/Projects/osf/tests/test_models.py'
g182
S'TestUpdateNodeWiki.test_update_name_invalid'
tp423
sI392
(S'/Users/rliebz/Projects/osf/tests/test_models.py'
g182
S'TestUpdateNodeWiki.test_update_two_node_wikis'
tp424
sI393
(S'/Users/rliebz/Projects/osf/tests/test_models.py'
g182
S'TestUpdateNodeWiki.test_wiki_content'
tp425
sI394
(S'/Users/rliebz/Projects/osf/tests/test_models.py'
g182
S'TestUpdateNodeWiki.test_wiki_versions'
tp426
sI395
(S'/Users/rliebz/Projects/osf/tests/test_models.py'
g182
S'TestUser.test_absolute_url'
tp427
sI396
(S'/Users/rliebz/Projects/osf/tests/test_models.py'
g182
S'TestUser.test_activity_points'
tp428
sI397
(S'/Users/rliebz/Projects/osf/tests/test_models.py'
g182
S'TestUser.test_add_email_verification'
tp429
sI398
(S'/Users/rliebz/Projects/osf/tests/test_models.py'
g182
S'TestUser.test_add_email_verification_adds_expiration_date'
tp430
sI399
(S'/Users/rliebz/Projects/osf/tests/test_models.py'
g182
S'TestUser.test_cant_create_user_without_full_name'
tp431
sI400
(S'/Users/rliebz/Projects/osf/tests/test_models.py'
g182
S'TestUser.test_cant_create_user_without_username'
tp432
sI401
(S'/Users/rliebz/Projects/osf/tests/test_models.py'
g182
S'TestUser.test_change_password'
tp433
sI402
(S'/Users/rliebz/Projects/osf/tests/test_models.py'
g182
S'TestUser.test_change_password_invalid'
tp434
sI403
(S'/Users/rliebz/Projects/osf/tests/test_models.py'
g182
S'TestUser.test_change_password_invalid_blank_confirm_password'
tp435
sI404
(S'/Users/rliebz/Projects/osf/tests/test_models.py'
g182
S'TestUser.test_change_password_invalid_blank_new_password'
tp436
sI405
(S'/Users/rliebz/Projects/osf/tests/test_models.py'
g182
S'TestUser.test_change_password_invalid_blank_password'
tp437
sI406
(S'/Users/rliebz/Projects/osf/tests/test_models.py'
g182
S'TestUser.test_change_password_invalid_confirm_password'
tp438
sI407
(S'/Users/rliebz/Projects/osf/tests/test_models.py'
g182
S'TestUser.test_change_password_invalid_new_password_length'
tp439
sI408
(S'/Users/rliebz/Projects/osf/tests/test_models.py'
g182
S'TestUser.test_change_password_invalid_old_password'
tp440
sI409
(S'/Users/rliebz/Projects/osf/tests/test_models.py'
g182
S'TestUser.test_check_password'
tp441
sI410
(S'/Users/rliebz/Projects/osf/tests/test_models.py'
g182
S'TestUser.test_confirm_email_comparison_is_case_insensitive'
tp442
sI411
(S'/Users/rliebz/Projects/osf/tests/test_models.py'
g182
S'TestUser.test_confirm_primary_email'
tp443
sI412
(S'/Users/rliebz/Projects/osf/tests/test_models.py'
g182
S'TestUser.test_create'
tp444
sI413
(S'/Users/rliebz/Projects/osf/tests/test_models.py'
g182
S'TestUser.test_create_confirmed'
tp445
sI414
(S'/Users/rliebz/Projects/osf/tests/test_models.py'
g182
S'TestUser.test_create_unconfirmed'
tp446
sI415
(S'/Users/rliebz/Projects/osf/tests/test_models.py'
g182
S'TestUser.test_create_unregistered'
tp447
sI416
(S'/Users/rliebz/Projects/osf/tests/test_models.py'
g182
S'TestUser.test_create_unregistered_raises_error_if_already_in_db'
tp448
sI417
(S'/Users/rliebz/Projects/osf/tests/test_models.py'
g182
S'TestUser.test_date_registered_upon_saving'
tp449
sI418
(S'/Users/rliebz/Projects/osf/tests/test_models.py'
g182
S'TestUser.test_display_full_name_registered'
tp450
sI419
(S'/Users/rliebz/Projects/osf/tests/test_models.py'
g182
S'TestUser.test_display_full_name_unregistered'
tp451
sI420
(S'/Users/rliebz/Projects/osf/tests/test_models.py'
g182
S'TestUser.test_factory'
tp452
sI421
(S'/Users/rliebz/Projects/osf/tests/test_models.py'
g182
S'TestUser.test_format_surname'
tp453
sI422
(S'/Users/rliebz/Projects/osf/tests/test_models.py'
g182
S'TestUser.test_format_surname_one_name'
tp454
sI423
(S'/Users/rliebz/Projects/osf/tests/test_models.py'
g182
S'TestUser.test_get_confirmation_token'
tp455
sI424
(S'/Users/rliebz/Projects/osf/tests/test_models.py'
g182
S'TestUser.test_get_confirmation_url'
tp456
sI425
(S'/Users/rliebz/Projects/osf/tests/test_models.py'
g182
S'TestUser.test_get_projects_in_common'
tp457
sI426
(S'/Users/rliebz/Projects/osf/tests/test_models.py'
g182
S'TestUser.test_gravatar_url'
tp458
sI427
(S'/Users/rliebz/Projects/osf/tests/test_models.py'
g182
S'TestUser.test_is_watching'
tp459
sI428
(S'/Users/rliebz/Projects/osf/tests/test_models.py'
g182
S'TestUser.test_merged_user_is_not_active'
tp460
sI429
(S'/Users/rliebz/Projects/osf/tests/test_models.py'
g182
S'TestUser.test_n_projects_in_common'
tp461
sI430
(S'/Users/rliebz/Projects/osf/tests/test_models.py'
g182
S'TestUser.test_non_registered_user_is_not_active'
tp462
sI431
(S'/Users/rliebz/Projects/osf/tests/test_models.py'
g182
S'TestUser.test_recently_added'
tp463
sI432
(S'/Users/rliebz/Projects/osf/tests/test_models.py'
g182
S'TestUser.test_recently_added_length'
tp464
sI433
(S'/Users/rliebz/Projects/osf/tests/test_models.py'
g182
S'TestUser.test_recently_added_multi_project'
tp465
sI434
(S'/Users/rliebz/Projects/osf/tests/test_models.py'
g182
S'TestUser.test_repr'
tp466
sI435
(S'/Users/rliebz/Projects/osf/tests/test_models.py'
g182
S'TestUser.test_search_not_updated_for_unreg_users'
tp467
sI436
(S'/Users/rliebz/Projects/osf/tests/test_models.py'
g182
S'TestUser.test_search_updated_for_registered_users'
tp468
sI437
(S'/Users/rliebz/Projects/osf/tests/test_models.py'
g182
S'TestUser.test_serialize'
tp469
sI438
(S'/Users/rliebz/Projects/osf/tests/test_models.py'
g182
S'TestUser.test_serialize_user'
tp470
sI439
(S'/Users/rliebz/Projects/osf/tests/test_models.py'
g182
S'TestUser.test_serialize_user_full'
tp471
sI440
(S'/Users/rliebz/Projects/osf/tests/test_models.py'
g182
S'TestUser.test_set_password'
tp472
sI441
(S'/Users/rliebz/Projects/osf/tests/test_models.py'
g182
S'TestUser.test_update_guessed_names'
tp473
sI442
(S'/Users/rliebz/Projects/osf/tests/test_models.py'
g182
S'TestUser.test_url'
tp474
sI443
(S'/Users/rliebz/Projects/osf/tests/test_models.py'
g182
S'TestUser.test_user_with_no_password_is_not_active'
tp475
sI444
(S'/Users/rliebz/Projects/osf/tests/test_models.py'
g182
S'TestUser.test_verify_confirmation_token'
tp476
sI445
(S'/Users/rliebz/Projects/osf/tests/test_models.py'
g182
S'TestUserParse.test_parse_first_last'
tp477
sI446
(S'/Users/rliebz/Projects/osf/tests/test_models.py'
g182
S'TestUserParse.test_parse_first_last_particles'
tp478
sI447
(S'/Users/rliebz/Projects/osf/tests/test_models.py'
g182
S'TestUserValidation.test_empty_social_links'
tp479
sI448
(S'/Users/rliebz/Projects/osf/tests/test_models.py'
g182
S'TestUserValidation.test_nonsocial_ignored'
tp480
sI449
(S'/Users/rliebz/Projects/osf/tests/test_models.py'
g182
S'TestUserValidation.test_personal_site_unchanged'
tp481
sI450
(S'/Users/rliebz/Projects/osf/tests/test_models.py'
g182
S'TestUserValidation.test_validate_fullname_empty'
tp482
sI451
(S'/Users/rliebz/Projects/osf/tests/test_models.py'
g182
S'TestUserValidation.test_validate_fullname_none'
tp483
sI452
(S'/Users/rliebz/Projects/osf/tests/test_models.py'
g182
S'TestUserValidation.test_validate_jobs_bad_end_date'
tp484
sI453
(S'/Users/rliebz/Projects/osf/tests/test_models.py'
g182
S'TestUserValidation.test_validate_jobs_institution_empty'
tp485
sI454
(S'/Users/rliebz/Projects/osf/tests/test_models.py'
g182
S'TestUserValidation.test_validate_jobs_valid'
tp486
sI455
(S'/Users/rliebz/Projects/osf/tests/test_models.py'
g182
S'TestUserValidation.test_validate_schools_bad_end_date'
tp487
sI456
(S'/Users/rliebz/Projects/osf/tests/test_models.py'
g182
S'TestUserValidation.test_validate_social_personal_empty'
tp488
sI457
(S'/Users/rliebz/Projects/osf/tests/test_models.py'
g182
S'TestUserValidation.test_validate_social_personal_invalid'
tp489
sI458
(S'/Users/rliebz/Projects/osf/tests/test_models.py'
g182
S'TestUserValidation.test_validate_social_valid'
tp490
sI459
(S'/Users/rliebz/Projects/osf/tests/test_models.py'
g182
S'TestUserValidation.test_various_social_handles'
tp491
sI460
(S'/Users/rliebz/Projects/osf/tests/test_models.py'
g182
S'TestWatchConfig.test_factory'
tp492
sI461
(S'/Users/rliebz/Projects/osf/tests/test_permissions.py'
S'tests.test_permissions'
p493
S'test_expand_permissions'
p494
tp495
sI462
(S'/Users/rliebz/Projects/osf/tests/test_permissions.py'
g493
S'test_reduce_permissions'
p496
tp497
sI463
(S'/Users/rliebz/Projects/osf/tests/test_permissions.py'
g493
S'test_reduce_permissions_with_empty_list_raises_error'
p498
tp499
sI464
(S'/Users/rliebz/Projects/osf/tests/test_permissions.py'
g493
S'test_reduce_permissions_with_unknown_permission_raises_error'
p500
tp501
sI465
(S'/Users/rliebz/Projects/osf/tests/test_permissions.py'
g493
S'test_default_contributor_permissions'
p502
tp503
sI466
(S'/Users/rliebz/Projects/osf/tests/test_piwik.py'
S'tests.test_piwik'
p504
S'TestCreateProject.test_has_piwik_site_id'
tp505
sI467
(S'/Users/rliebz/Projects/osf/tests/test_piwik.py'
g504
S'TestCreateUser.test_has_piwik_token'
tp506
sI468
(S'/Users/rliebz/Projects/osf/tests/test_rubeus.py'
S'tests.test_rubeus'
p507
S'TestRubeus.test_build_addon_root_has_correct_upload_limits'
tp508
sI469
(S'/Users/rliebz/Projects/osf/tests/test_rubeus.py'
g507
S'TestRubeus.test_collect_components_deleted'
tp509
sI470
(S'/Users/rliebz/Projects/osf/tests/test_rubeus.py'
g507
S'TestRubeus.test_hgrid_dummy'
tp510
sI471
(S'/Users/rliebz/Projects/osf/tests/test_rubeus.py'
g507
S'TestRubeus.test_hgrid_dummy_fail'
tp511
sI472
(S'/Users/rliebz/Projects/osf/tests/test_rubeus.py'
g507
S'TestRubeus.test_hgrid_dummy_node_urls'
tp512
sI473
(S'/Users/rliebz/Projects/osf/tests/test_rubeus.py'
g507
S'TestRubeus.test_hgrid_dummy_overrides'
tp513
sI474
(S'/Users/rliebz/Projects/osf/tests/test_rubeus.py'
g507
S'TestRubeus.test_serialize_private_node'
tp514
sI475
(S'/Users/rliebz/Projects/osf/tests/test_rubeus.py'
g507
S'TestRubeus.test_serialized_pointer_has_flag_indicating_its_a_pointer'
tp515
sI476
(S'/Users/rliebz/Projects/osf/tests/test_rubeus.py'
g507
S'TestSerializingEmptyDashboard.test_empty_dashboard_are_valid_folders'
tp516
sI477
(S'/Users/rliebz/Projects/osf/tests/test_rubeus.py'
g507
S'TestSerializingEmptyDashboard.test_empty_dashboard_has_proper_number_of_smart_folders'
tp517
sI478
(S'/Users/rliebz/Projects/osf/tests/test_rubeus.py'
g507
S'TestSerializingEmptyDashboard.test_empty_dashboard_hgrid_representation_is_list'
tp518
sI479
(S'/Users/rliebz/Projects/osf/tests/test_rubeus.py'
g507
S'TestSerializingEmptyDashboard.test_empty_dashboard_smart_folders_are_empty'
tp519
sI480
(S'/Users/rliebz/Projects/osf/tests/test_rubeus.py'
g507
S'TestSerializingEmptyDashboard.test_empty_dashboard_smart_folders_are_valid_smart_folders'
tp520
sI481
(S'/Users/rliebz/Projects/osf/tests/test_rubeus.py'
g507
S'TestSerializingEmptyDashboard.test_empty_dashboard_smart_folders_have_correct_names_and_ids'
tp521
sI482
(S'/Users/rliebz/Projects/osf/tests/test_rubeus.py'
g507
S'TestSerializingFolders.test_serialize_folder_containing_folder_increases_size_by_one'
tp522
sI483
(S'/Users/rliebz/Projects/osf/tests/test_rubeus.py'
g507
S'TestSerializingFolders.test_serialized_folder_is_valid_folder'
tp523
sI484
(S'/Users/rliebz/Projects/osf/tests/test_rubeus.py'
g507
S'TestSerializingNodeWithAddon.test_collect_addons'
tp524
sI485
(S'/Users/rliebz/Projects/osf/tests/test_rubeus.py'
g507
S'TestSerializingNodeWithAddon.test_collect_js_recursive'
tp525
sI486
(S'/Users/rliebz/Projects/osf/tests/test_rubeus.py'
g507
S'TestSerializingNodeWithAddon.test_collect_js_unique'
tp526
sI487
(S'/Users/rliebz/Projects/osf/tests/test_rubeus.py'
g507
S'TestSerializingNodeWithAddon.test_serialize_node'
tp527
sI488
(S'/Users/rliebz/Projects/osf/tests/test_rubeus.py'
g507
S'TestSerializingNodeWithAddon.test_sort_by_name'
tp528
sI489
(S'/Users/rliebz/Projects/osf/tests/test_rubeus.py'
g507
S'TestSerializingNodeWithAddon.test_sort_by_name_none'
tp529
sI490
(S'/Users/rliebz/Projects/osf/tests/test_rubeus.py'
g507
S'TestSerializingPopulatedDashboard.test_dashboard_adding_one_folder_does_not_remove_smart_folders'
tp530
sI491
(S'/Users/rliebz/Projects/osf/tests/test_rubeus.py'
g507
S'TestSerializingPopulatedDashboard.test_dashboard_adding_one_folder_increases_size_by_one'
tp531
sI492
(S'/Users/rliebz/Projects/osf/tests/test_rubeus.py'
g507
S'TestSerializingPopulatedDashboard.test_dashboard_adding_one_folder_increases_size_by_one_in_hgrid_representation'
tp532
sI493
(S'/Users/rliebz/Projects/osf/tests/test_rubeus.py'
g507
S'TestSmartFolderViews.test_adding_project_to_dashboard_increases_json_size_by_one'
tp533
sI494
(S'/Users/rliebz/Projects/osf/tests/test_rubeus.py'
g507
S'TestSmartFolderViews.test_adding_registration_to_dashboard_increases_json_size_by_one'
tp534
sI495
(S'/Users/rliebz/Projects/osf/tests/test_sanitize.py'
S'tests.test_sanitize'
p535
S'TestSanitize.test_clean_tag'
tp536
sI496
(S'/Users/rliebz/Projects/osf/tests/test_sanitize.py'
g535
S'TestSanitize.test_escape_html'
tp537
sI497
(S'/Users/rliebz/Projects/osf/tests/test_sanitize.py'
g535
S'TestSanitize.test_strip_html'
tp538
sI498
(S'/Users/rliebz/Projects/osf/tests/test_security.py'
S'tests.test_security'
p539
S'test_random_string'
p540
tp541
sI499
(S'/Users/rliebz/Projects/osf/tests/test_security.py'
g539
S'test_encryption'
p542
tp543
sI500
(S'/Users/rliebz/Projects/osf/tests/test_serializers.py'
S'tests.test_serializers'
p544
S'TestAddContributorJson.test_add_contributor_json'
tp545
sI501
(S'/Users/rliebz/Projects/osf/tests/test_serializers.py'
g544
S'TestAddContributorJson.test_add_contributor_json_with_edu'
tp546
sI502
(S'/Users/rliebz/Projects/osf/tests/test_serializers.py'
g544
S'TestAddContributorJson.test_add_contributor_json_with_job'
tp547
sI503
(S'/Users/rliebz/Projects/osf/tests/test_serializers.py'
g544
S'TestAddContributorJson.test_add_contributor_json_with_job_and_edu'
tp548
sI504
(S'/Users/rliebz/Projects/osf/tests/test_serializers.py'
g544
S'TestNodeLogSerializers.test_serialize_log'
tp549
sI505
(S'/Users/rliebz/Projects/osf/tests/test_serializers.py'
g544
S'TestNodeLogSerializers.test_serialize_node_for_logs'
tp550
sI506
(S'/Users/rliebz/Projects/osf/tests/test_serializers.py'
g544
S'TestNodeSerializers.test_get_summary_for_registration_uses_correct_date_format'
tp551
sI507
(S'/Users/rliebz/Projects/osf/tests/test_serializers.py'
g544
S'TestNodeSerializers.test_get_summary_private_fork_private_project_should_include_is_fork'
tp552
sI508
(S'/Users/rliebz/Projects/osf/tests/test_serializers.py'
g544
S'TestNodeSerializers.test_get_summary_private_fork_should_include_is_fork'
tp553
sI509
(S'/Users/rliebz/Projects/osf/tests/test_serializers.py'
g544
S'TestNodeSerializers.test_get_summary_private_node_should_include_id_and_primary_boolean_reg_and_fork'
tp554
sI510
(S'/Users/rliebz/Projects/osf/tests/test_serializers.py'
g544
S'TestNodeSerializers.test_get_summary_private_registration_should_include_is_registration'
tp555
sI511
(S'/Users/rliebz/Projects/osf/tests/test_serializers.py'
g544
S'TestNodeSerializers.test_render_node'
tp556
sI512
(S'/Users/rliebz/Projects/osf/tests/test_serializers.py'
g544
S'TestNodeSerializers.test_render_node_returns_permissions'
tp557
sI513
(S'/Users/rliebz/Projects/osf/tests/test_serializers.py'
g544
S'TestNodeSerializers.test_serialize_node_search_returns_only_visible_contributors'
tp558
sI514
(S'/Users/rliebz/Projects/osf/tests/test_serializers.py'
g544
S'TestViewProject.test_view_project_pointer_count_excludes_folders'
tp559
sI515
(S'/Users/rliebz/Projects/osf/tests/test_transactions.py'
S'tests.test_transactions'
p560
S'TestSkipTransactions.test_no_skip'
tp561
sI516
(S'/Users/rliebz/Projects/osf/tests/test_transactions.py'
g560
S'TestSkipTransactions.test_skip_transaction'
tp562
sI517
(S'/Users/rliebz/Projects/osf/tests/test_transactions.py'
g560
S'TestSkipTransactions.test_skip_transaction_reverse_decorators'
tp563
sI518
(S'/Users/rliebz/Projects/osf/tests/test_transactions.py'
g560
S'TestTransactionContext.test_commit'
tp564
sI519
(S'/Users/rliebz/Projects/osf/tests/test_transactions.py'
g560
S'TestTransactionContext.test_exception_triggers_rollback'
tp565
sI520
(S'/Users/rliebz/Projects/osf/tests/test_transactions.py'
g560
S'TestTransactionContext.test_nested_contexts'
tp566
sI521
(S'/Users/rliebz/Projects/osf/tests/test_transactions.py'
g560
S'TestTransactionContext.test_nested_exception_triggers_rollback'
tp567
sI522
(S'/Users/rliebz/Projects/osf/tests/test_transactions.py'
g560
S'TestTransactionHandlers.test_after_request'
tp568
sI523
(S'/Users/rliebz/Projects/osf/tests/test_transactions.py'
g560
S'TestTransactionHandlers.test_after_request_lock_error'
tp569
sI524
(S'/Users/rliebz/Projects/osf/tests/test_transactions.py'
g560
S'TestTransactionHandlers.test_after_request_uncaught_exception'
tp570
sI525
(S'/Users/rliebz/Projects/osf/tests/test_transactions.py'
g560
S'TestTransactionHandlers.test_before_request'
tp571
sI526
(S'/Users/rliebz/Projects/osf/tests/test_transactions.py'
g560
S'TestTransactionHandlers.test_before_request_transaction_active'
tp572
sI527
(S'/Users/rliebz/Projects/osf/tests/test_transactions.py'
g560
S'TestTransactionHandlers.test_before_request_unexpected_error'
tp573
sI528
(S'/Users/rliebz/Projects/osf/tests/test_transactions.py'
g560
S'TestTransactionIntegration.test_commit_if_no_error'
tp574
sI529
(S'/Users/rliebz/Projects/osf/tests/test_transactions.py'
g560
S'TestTransactionIntegration.test_rollback_if_error_500'
tp575
sI530
(S'/Users/rliebz/Projects/osf/tests/test_transactions.py'
g560
S'TestTransactionIntegration.test_rollback_if_error_uncaught'
tp576
sI531
(S'/Users/rliebz/Projects/osf/tests/test_utils.py'
S'tests.test_utils'
p577
S'TestFrameworkUtils.test_leading_underscores'
tp578
sI532
(S'/Users/rliebz/Projects/osf/tests/test_utils.py'
g577
S'TestFrameworkUtils.test_werkzeug_cases'
tp579
sI533
(S'/Users/rliebz/Projects/osf/tests/test_utils.py'
g577
S'TestGetMimeTypes.test_get_markdown_mimetype_from_filename'
tp580
sI534
(S'/Users/rliebz/Projects/osf/tests/test_utils.py'
g577
S'TestGetMimeTypes.test_unknown_extension_with_no_contents_not_real_file_results_in_exception'
tp581
sI535
(S'/Users/rliebz/Projects/osf/tests/test_utils.py'
g577
S'TestGetMimeTypes.test_unknown_extension_with_python_contents_results_in_python_mimetype'
tp582
sI536
(S'/Users/rliebz/Projects/osf/tests/test_utils.py'
g577
S'TestGetMimeTypes.test_unknown_extension_with_real_file_results_in_python_mimetype'
tp583
sI537
(S'/Users/rliebz/Projects/osf/tests/test_utils.py'
g577
S'TestUrlForHelpers.test_api_url_for'
tp584
sI538
(S'/Users/rliebz/Projects/osf/tests/test_utils.py'
g577
S'TestUrlForHelpers.test_api_url_for_with_multiple_urls'
tp585
sI539
(S'/Users/rliebz/Projects/osf/tests/test_utils.py'
g577
S'TestUrlForHelpers.test_is_json_request'
tp586
sI540
(S'/Users/rliebz/Projects/osf/tests/test_utils.py'
g577
S'TestUrlForHelpers.test_web_url_for'
tp587
sI541
(S'/Users/rliebz/Projects/osf/tests/test_utils.py'
g577
S'TestUrlForHelpers.test_web_url_for_guid'
tp588
sI542
(S'/Users/rliebz/Projects/osf/tests/test_utils.py'
g577
S'TestUrlForHelpers.test_web_url_for_guid_case_sensitive'
tp589
sI543
(S'/Users/rliebz/Projects/osf/tests/test_utils.py'
g577
S'TestUrlForHelpers.test_web_url_for_guid_invalid_unicode'
tp590
sI544
(S'/Users/rliebz/Projects/osf/tests/test_utils.py'
g577
S'TestUrlForHelpers.test_web_url_for_guid_regex_conditions'
tp591
sI545
(S'/Users/rliebz/Projects/osf/tests/test_utils.py'
g577
S'TestUrlForHelpers.test_web_url_for_with_multiple_urls'
tp592
sI546
(S'/Users/rliebz/Projects/osf/tests/test_utils.py'
g577
S'TestWebpackFilter.test_resolve_asset'
tp593
sI547
(S'/Users/rliebz/Projects/osf/tests/test_utils.py'
g577
S'TestWebpackFilter.test_resolve_asset_not_found'
tp594
sI548
(S'/Users/rliebz/Projects/osf/tests/test_views.py'
S'tests.test_views'
p595
S'TestAddingContributorViews.test_add_contribs_to_multiple_nodes'
tp596
sI549
(S'/Users/rliebz/Projects/osf/tests/test_views.py'
g595
S'TestAddingContributorViews.test_add_contributor_with_unreg_contribs_and_reg_contribs'
tp597
sI550
(S'/Users/rliebz/Projects/osf/tests/test_views.py'
g595
S'TestAddingContributorViews.test_add_contributors_post_only_sends_one_email_to_unreg_user'
tp598
sI551
(S'/Users/rliebz/Projects/osf/tests/test_views.py'
g595
S'TestAddingContributorViews.test_add_multiple_contributors_only_adds_one_log'
tp599
sI552
(S'/Users/rliebz/Projects/osf/tests/test_views.py'
g595
S'TestAddingContributorViews.test_deserialize_contributors'
tp600
sI553
(S'/Users/rliebz/Projects/osf/tests/test_views.py'
g595
S'TestAddingContributorViews.test_deserialize_contributors_sends_unreg_contributor_added_signal'
tp601
sI554
(S'/Users/rliebz/Projects/osf/tests/test_views.py'
g595
S'TestAddingContributorViews.test_email_sent_when_unreg_user_is_added'
tp602
sI555
(S'/Users/rliebz/Projects/osf/tests/test_views.py'
g595
S'TestAddingContributorViews.test_serialize_unregistered_with_record'
tp603
sI556
(S'/Users/rliebz/Projects/osf/tests/test_views.py'
g595
S'TestAddingContributorViews.test_serialize_unregistered_without_record'
tp604
sI557
(S'/Users/rliebz/Projects/osf/tests/test_views.py'
g595
S'TestAddonUserViews.test_choose_addons_add'
tp605
sI558
(S'/Users/rliebz/Projects/osf/tests/test_views.py'
g595
S'TestAddonUserViews.test_choose_addons_remove'
tp606
sI559
(S'/Users/rliebz/Projects/osf/tests/test_views.py'
g595
S'TestAuthViews.test_confirm_email_clears_unclaimed_records_and_revokes_token'
tp607
sI560
(S'/Users/rliebz/Projects/osf/tests/test_views.py'
g595
S'TestAuthViews.test_confirmation_link_registers_user'
tp608
sI561
(S'/Users/rliebz/Projects/osf/tests/test_views.py'
g595
S'TestAuthViews.test_expired_link_returns_400'
tp609
sI562
(S'/Users/rliebz/Projects/osf/tests/test_views.py'
g595
S'TestAuthViews.test_merge_user'
tp610
sI563
(S'/Users/rliebz/Projects/osf/tests/test_views.py'
g595
S'TestAuthViews.test_register_after_being_invited_as_unreg_contributor'
tp611
sI564
(S'/Users/rliebz/Projects/osf/tests/test_views.py'
g595
S'TestAuthViews.test_register_email_mismatch'
tp612
sI565
(S'/Users/rliebz/Projects/osf/tests/test_views.py'
g595
S'TestAuthViews.test_register_ok'
tp613
sI566
(S'/Users/rliebz/Projects/osf/tests/test_views.py'
g595
S'TestAuthViews.test_register_post_sends_user_registered_signal'
tp614
sI567
(S'/Users/rliebz/Projects/osf/tests/test_views.py'
g595
S'TestAuthViews.test_register_sends_confirm_email'
tp615
sI568
(S'/Users/rliebz/Projects/osf/tests/test_views.py'
g595
S'TestAuthViews.test_register_sends_user_registered_signal'
tp616
sI569
(S'/Users/rliebz/Projects/osf/tests/test_views.py'
g595
S'TestAuthViews.test_resend_confirmation_get'
tp617
sI570
(S'/Users/rliebz/Projects/osf/tests/test_views.py'
g595
S'TestAuthViews.test_resend_confirmation_post_if_user_not_in_database'
tp618
sI571
(S'/Users/rliebz/Projects/osf/tests/test_views.py'
g595
S'TestAuthViews.test_resend_confirmation_post_sends_confirm_email'
tp619
sI572
(S'/Users/rliebz/Projects/osf/tests/test_views.py'
g595
S'TestChildrenViews.test_get_children'
tp620
sI573
(S'/Users/rliebz/Projects/osf/tests/test_views.py'
g595
S'TestChildrenViews.test_get_children_filter_for_permissions'
tp621
sI574
(S'/Users/rliebz/Projects/osf/tests/test_views.py'
g595
S'TestChildrenViews.test_get_children_includes_pointers'
tp622
sI575
(S'/Users/rliebz/Projects/osf/tests/test_views.py'
g595
S'TestChildrenViews.test_get_children_render_nodes_receives_auth'
tp623
sI576
(S'/Users/rliebz/Projects/osf/tests/test_views.py'
g595
S'TestChildrenViews.test_get_children_rescale_ratio'
tp624
sI577
(S'/Users/rliebz/Projects/osf/tests/test_views.py'
g595
S'TestClaimViews.test_cannot_claim_user_with_user_who_is_already_contributor'
tp625
sI578
(S'/Users/rliebz/Projects/osf/tests/test_views.py'
g595
S'TestClaimViews.test_claim_url_with_bad_token_returns_400'
tp626
sI579
(S'/Users/rliebz/Projects/osf/tests/test_views.py'
g595
S'TestClaimViews.test_claim_user_form_redirects_to_password_confirm_page_if_user_is_logged_in'
tp627
sI580
(S'/Users/rliebz/Projects/osf/tests/test_views.py'
g595
S'TestClaimViews.test_claim_user_post_if_email_is_different_from_given_email'
tp628
sI581
(S'/Users/rliebz/Projects/osf/tests/test_views.py'
g595
S'TestClaimViews.test_claim_user_post_returns_fullname'
tp629
sI582
(S'/Users/rliebz/Projects/osf/tests/test_views.py'
g595
S'TestClaimViews.test_claim_user_post_with_email_already_registered_sends_correct_email'
tp630
sI583
(S'/Users/rliebz/Projects/osf/tests/test_views.py'
g595
S'TestClaimViews.test_claim_user_post_with_registered_user_id'
tp631
sI584
(S'/Users/rliebz/Projects/osf/tests/test_views.py'
g595
S'TestClaimViews.test_get_valid_form'
tp632
sI585
(S'/Users/rliebz/Projects/osf/tests/test_views.py'
g595
S'TestClaimViews.test_invalid_claim_form_redirects_to_register_page'
tp633
sI586
(S'/Users/rliebz/Projects/osf/tests/test_views.py'
g595
S'TestClaimViews.test_posting_to_claim_form_removes_all_unclaimed_data'
tp634
sI587
(S'/Users/rliebz/Projects/osf/tests/test_views.py'
g595
S'TestClaimViews.test_posting_to_claim_form_sets_fullname_to_given_name'
tp635
sI588
(S'/Users/rliebz/Projects/osf/tests/test_views.py'
g595
S'TestClaimViews.test_posting_to_claim_form_with_valid_data'
tp636
sI589
(S'/Users/rliebz/Projects/osf/tests/test_views.py'
g595
S'TestClaimViews.test_user_with_claim_url_cannot_claim_twice'
tp637
sI590
(S'/Users/rliebz/Projects/osf/tests/test_views.py'
g595
S'TestClaimViews.test_user_with_removed_unclaimed_url_claiming'
tp638
sI591
(S'/Users/rliebz/Projects/osf/tests/test_views.py'
g595
S'TestComments.test_add_comment_empty'
tp639
sI592
(S'/Users/rliebz/Projects/osf/tests/test_views.py'
g595
S'TestComments.test_add_comment_logged_out'
tp640
sI593
(S'/Users/rliebz/Projects/osf/tests/test_views.py'
g595
S'TestComments.test_add_comment_off'
tp641
sI594
(S'/Users/rliebz/Projects/osf/tests/test_views.py'
g595
S'TestComments.test_add_comment_private_contributor'
tp642
sI595
(S'/Users/rliebz/Projects/osf/tests/test_views.py'
g595
S'TestComments.test_add_comment_private_non_contributor'
tp643
sI596
(S'/Users/rliebz/Projects/osf/tests/test_views.py'
g595
S'TestComments.test_add_comment_public_contributor'
tp644
sI597
(S'/Users/rliebz/Projects/osf/tests/test_views.py'
g595
S'TestComments.test_add_comment_public_non_contributor'
tp645
sI598
(S'/Users/rliebz/Projects/osf/tests/test_views.py'
g595
S'TestComments.test_add_comment_toolong'
tp646
sI599
(S'/Users/rliebz/Projects/osf/tests/test_views.py'
g595
S'TestComments.test_add_comment_whitespace'
tp647
sI600
(S'/Users/rliebz/Projects/osf/tests/test_views.py'
g595
S'TestComments.test_can_view_private_comments_if_contributor'
tp648
sI601
(S'/Users/rliebz/Projects/osf/tests/test_views.py'
g595
S'TestComments.test_confirm_non_contrib_viewers_dont_have_pid_in_comments_view_timestamp'
tp649
sI602
(S'/Users/rliebz/Projects/osf/tests/test_views.py'
g595
S'TestComments.test_delete_comment_author'
tp650
sI603
(S'/Users/rliebz/Projects/osf/tests/test_views.py'
g595
S'TestComments.test_delete_comment_non_author'
tp651
sI604
(S'/Users/rliebz/Projects/osf/tests/test_views.py'
g595
S'TestComments.test_discussion_no_repeats'
tp652
sI605
(S'/Users/rliebz/Projects/osf/tests/test_views.py'
g595
S'TestComments.test_discussion_recursive'
tp653
sI606
(S'/Users/rliebz/Projects/osf/tests/test_views.py'
g595
S'TestComments.test_discussion_sort'
tp654
sI607
(S'/Users/rliebz/Projects/osf/tests/test_views.py'
g595
S'TestComments.test_edit_comment'
tp655
sI608
(S'/Users/rliebz/Projects/osf/tests/test_views.py'
g595
S'TestComments.test_edit_comment_non_author'
tp656
sI609
(S'/Users/rliebz/Projects/osf/tests/test_views.py'
g595
S'TestComments.test_edit_comment_non_contributor'
tp657
sI610
(S'/Users/rliebz/Projects/osf/tests/test_views.py'
g595
S'TestComments.test_edit_comment_short'
tp658
sI611
(S'/Users/rliebz/Projects/osf/tests/test_views.py'
g595
S'TestComments.test_edit_comment_toolong'
tp659
sI612
(S'/Users/rliebz/Projects/osf/tests/test_views.py'
g595
S'TestComments.test_n_unread_comments_is_zero_when_no_comments'
tp660
sI613
(S'/Users/rliebz/Projects/osf/tests/test_views.py'
g595
S'TestComments.test_n_unread_comments_updates_when_comment_is_added'
tp661
sI614
(S'/Users/rliebz/Projects/osf/tests/test_views.py'
g595
S'TestComments.test_n_unread_comments_updates_when_comment_is_edited'
tp662
sI615
(S'/Users/rliebz/Projects/osf/tests/test_views.py'
g595
S'TestComments.test_n_unread_comments_updates_when_comment_reply'
tp663
sI616
(S'/Users/rliebz/Projects/osf/tests/test_views.py'
g595
S'TestComments.test_report_abuse'
tp664
sI617
(S'/Users/rliebz/Projects/osf/tests/test_views.py'
g595
S'TestComments.test_view_comments_updates_user_comments_view_timestamp'
tp665
sI618
(S'/Users/rliebz/Projects/osf/tests/test_views.py'
g595
S'TestComments.test_view_comments_with_anonymous_link'
tp666
sI619
(S'/Users/rliebz/Projects/osf/tests/test_views.py'
g595
S'TestConfigureMailingListViews.test_get_mailchimp_get_endpoint_returns_200'
tp667
sI620
(S'/Users/rliebz/Projects/osf/tests/test_views.py'
g595
S'TestConfigureMailingListViews.test_mailchimp_webhook_profile_action_does_not_change_user'
tp668
sI621
(S'/Users/rliebz/Projects/osf/tests/test_views.py'
g595
S'TestConfigureMailingListViews.test_mailchimp_webhook_subscribe_action_does_not_change_user'
tp669
sI622
(S'/Users/rliebz/Projects/osf/tests/test_views.py'
g595
S'TestConfigureMailingListViews.test_sync_data_from_mailchimp_fails_without_secret_key'
tp670
sI623
(S'/Users/rliebz/Projects/osf/tests/test_views.py'
g595
S'TestConfigureMailingListViews.test_sync_data_from_mailchimp_unsubscribes_user'
tp671
sI624
(S'/Users/rliebz/Projects/osf/tests/test_views.py'
g595
S'TestConfigureMailingListViews.test_user_choose_mailing_lists_updates_user_dict'
tp672
sI625
(S'/Users/rliebz/Projects/osf/tests/test_views.py'
g595
S'TestDashboardViews.test_collapse_node_sets_expand_to_true'
tp673
sI626
(S'/Users/rliebz/Projects/osf/tests/test_views.py'
g595
S'TestDashboardViews.test_components_with_are_accessible_from_dashboard'
tp674
sI627
(S'/Users/rliebz/Projects/osf/tests/test_views.py'
g595
S'TestDashboardViews.test_expand_node_sets_expand_to_true'
tp675
sI628
(S'/Users/rliebz/Projects/osf/tests/test_views.py'
g595
S'TestDashboardViews.test_folder_new_post'
tp676
sI629
(S'/Users/rliebz/Projects/osf/tests/test_views.py'
g595
S'TestDashboardViews.test_get_dashboard_nodes'
tp677
sI630
(S'/Users/rliebz/Projects/osf/tests/test_views.py'
g595
S'TestDashboardViews.test_get_dashboard_nodes_admin_only'
tp678
sI631
(S'/Users/rliebz/Projects/osf/tests/test_views.py'
g595
S'TestDashboardViews.test_get_dashboard_nodes_invalid_permission'
tp679
sI632
(S'/Users/rliebz/Projects/osf/tests/test_views.py'
g595
S'TestDashboardViews.test_get_dashboard_nodes_shows_components_if_user_is_not_contrib_on_project'
tp680
sI633
(S'/Users/rliebz/Projects/osf/tests/test_views.py'
g595
S'TestDashboardViews.test_registered_components_with_are_accessible_from_dashboard'
tp681
sI634
(S'/Users/rliebz/Projects/osf/tests/test_views.py'
g595
S'TestDashboardViews.test_untouched_node_is_collapsed'
tp682
sI635
(S'/Users/rliebz/Projects/osf/tests/test_views.py'
g595
S'TestFileViews.test_files_get'
tp683
sI636
(S'/Users/rliebz/Projects/osf/tests/test_views.py'
g595
S'TestFileViews.test_grid_data'
tp684
sI637
(S'/Users/rliebz/Projects/osf/tests/test_views.py'
g595
S'TestForkViews.test_fork_private_project_non_contributor'
tp685
sI638
(S'/Users/rliebz/Projects/osf/tests/test_views.py'
g595
S'TestForkViews.test_fork_project_contributor'
tp686
sI639
(S'/Users/rliebz/Projects/osf/tests/test_views.py'
g595
S'TestForkViews.test_fork_public_project_non_contributor'
tp687
sI640
(S'/Users/rliebz/Projects/osf/tests/test_views.py'
g595
S'TestForkViews.test_registered_forks_dont_show_in_fork_list'
tp688
sI641
(S'/Users/rliebz/Projects/osf/tests/test_views.py'
g595
S'TestODMTitleSearch.test_search_projects_by_title'
tp689
sI642
(S'/Users/rliebz/Projects/osf/tests/test_views.py'
g595
S'TestPointerViews.test_add_pointers'
tp690
sI643
(S'/Users/rliebz/Projects/osf/tests/test_views.py'
g595
S'TestPointerViews.test_add_pointers_contributor'
tp691
sI644
(S'/Users/rliebz/Projects/osf/tests/test_views.py'
g595
S'TestPointerViews.test_add_pointers_no_user_logg_in'
tp692
sI645
(S'/Users/rliebz/Projects/osf/tests/test_views.py'
g595
S'TestPointerViews.test_add_pointers_not_provided'
tp693
sI646
(S'/Users/rliebz/Projects/osf/tests/test_views.py'
g595
S'TestPointerViews.test_add_pointers_public_non_contributor'
tp694
sI647
(S'/Users/rliebz/Projects/osf/tests/test_views.py'
g595
S'TestPointerViews.test_add_the_same_pointer_more_than_once'
tp695
sI648
(S'/Users/rliebz/Projects/osf/tests/test_views.py'
g595
S'TestPointerViews.test_before_fork_no_pointer'
tp696
sI649
(S'/Users/rliebz/Projects/osf/tests/test_views.py'
g595
S'TestPointerViews.test_before_fork_with_pointer'
tp697
sI650
(S'/Users/rliebz/Projects/osf/tests/test_views.py'
g595
S'TestPointerViews.test_before_register_no_pointer'
tp698
sI651
(S'/Users/rliebz/Projects/osf/tests/test_views.py'
g595
S'TestPointerViews.test_before_register_with_pointer'
tp699
sI652
(S'/Users/rliebz/Projects/osf/tests/test_views.py'
g595
S'TestPointerViews.test_fork_pointer'
tp700
sI653
(S'/Users/rliebz/Projects/osf/tests/test_views.py'
g595
S'TestPointerViews.test_fork_pointer_not_found'
tp701
sI654
(S'/Users/rliebz/Projects/osf/tests/test_views.py'
g595
S'TestPointerViews.test_fork_pointer_not_in_nodes'
tp702
sI655
(S'/Users/rliebz/Projects/osf/tests/test_views.py'
g595
S'TestPointerViews.test_fork_pointer_not_provided'
tp703
sI656
(S'/Users/rliebz/Projects/osf/tests/test_views.py'
g595
S'TestPointerViews.test_get_pointed'
tp704
sI657
(S'/Users/rliebz/Projects/osf/tests/test_views.py'
g595
S'TestPointerViews.test_get_pointed_excludes_folders'
tp705
sI658
(S'/Users/rliebz/Projects/osf/tests/test_views.py'
g595
S'TestPointerViews.test_get_pointed_private'
tp706
sI659
(S'/Users/rliebz/Projects/osf/tests/test_views.py'
g595
S'TestPointerViews.test_move_pointers'
tp707
sI660
(S'/Users/rliebz/Projects/osf/tests/test_views.py'
g595
S'TestPointerViews.test_remove_pointer'
tp708
sI661
(S'/Users/rliebz/Projects/osf/tests/test_views.py'
g595
S'TestPointerViews.test_remove_pointer_not_found'
tp709
sI662
(S'/Users/rliebz/Projects/osf/tests/test_views.py'
g595
S'TestPointerViews.test_remove_pointer_not_in_nodes'
tp710
sI663
(S'/Users/rliebz/Projects/osf/tests/test_views.py'
g595
S'TestPointerViews.test_remove_pointer_not_provided'
tp711
sI664
(S'/Users/rliebz/Projects/osf/tests/test_views.py'
g595
S'TestProfileNodeList.test_get_public_components'
tp712
sI665
(S'/Users/rliebz/Projects/osf/tests/test_views.py'
g595
S'TestProfileNodeList.test_get_public_projects'
tp713
sI666
(S'/Users/rliebz/Projects/osf/tests/test_views.py'
g595
S'TestProjectCreation.test_can_template'
tp714
sI667
(S'/Users/rliebz/Projects/osf/tests/test_views.py'
g595
S'TestProjectCreation.test_create_component_strips_html'
tp715
sI668
(S'/Users/rliebz/Projects/osf/tests/test_views.py'
g595
S'TestProjectCreation.test_creates_a_project'
tp716
sI669
(S'/Users/rliebz/Projects/osf/tests/test_views.py'
g595
S'TestProjectCreation.test_description_works'
tp717
sI670
(S'/Users/rliebz/Projects/osf/tests/test_views.py'
g595
S'TestProjectCreation.test_fails_to_create_project_with_whitespace_title'
tp718
sI671
(S'/Users/rliebz/Projects/osf/tests/test_views.py'
g595
S'TestProjectCreation.test_needs_title'
tp719
sI672
(S'/Users/rliebz/Projects/osf/tests/test_views.py'
g595
S'TestProjectCreation.test_only_needs_title'
tp720
sI673
(S'/Users/rliebz/Projects/osf/tests/test_views.py'
g595
S'TestProjectCreation.test_project_before_template_no_addons'
tp721
sI674
(S'/Users/rliebz/Projects/osf/tests/test_views.py'
g595
S'TestProjectCreation.test_project_before_template_with_addons'
tp722
sI675
(S'/Users/rliebz/Projects/osf/tests/test_views.py'
g595
S'TestProjectCreation.test_project_new_from_template_contributor'
tp723
sI676
(S'/Users/rliebz/Projects/osf/tests/test_views.py'
g595
S'TestProjectCreation.test_project_new_from_template_non_user'
tp724
sI677
(S'/Users/rliebz/Projects/osf/tests/test_views.py'
g595
S'TestProjectCreation.test_project_new_from_template_public_non_contributor'
tp725
sI678
(S'/Users/rliebz/Projects/osf/tests/test_views.py'
g595
S'TestProjectCreation.test_strip_html_from_title'
tp726
sI679
(S'/Users/rliebz/Projects/osf/tests/test_views.py'
g595
S'TestProjectCreation.test_title_must_be_less_than_200'
tp727
sI680
(S'/Users/rliebz/Projects/osf/tests/test_views.py'
g595
S'TestProjectCreation.test_title_must_be_one_long'
tp728
sI681
(S'/Users/rliebz/Projects/osf/tests/test_views.py'
g595
S'TestProjectViews.test_add_contributor_post'
tp729
sI682
(S'/Users/rliebz/Projects/osf/tests/test_views.py'
g595
S'TestProjectViews.test_add_tag'
tp730
sI683
(S'/Users/rliebz/Projects/osf/tests/test_views.py'
g595
S'TestProjectViews.test_api_get_folder_pointers'
tp731
sI684
(S'/Users/rliebz/Projects/osf/tests/test_views.py'
g595
S'TestProjectViews.test_api_get_folder_pointers_from_non_folder'
tp732
sI685
(S'/Users/rliebz/Projects/osf/tests/test_views.py'
g595
S'TestProjectViews.test_can_view_public_log_from_private_project'
tp733
sI686
(S'/Users/rliebz/Projects/osf/tests/test_views.py'
g595
S'TestProjectViews.test_cant_make_private_if_not_admin'
tp734
sI687
(S'/Users/rliebz/Projects/osf/tests/test_views.py'
g595
S'TestProjectViews.test_cant_make_public_if_not_admin'
tp735
sI688
(S'/Users/rliebz/Projects/osf/tests/test_views.py'
g595
S'TestProjectViews.test_cant_remove_component_if_not_admin'
tp736
sI689
(S'/Users/rliebz/Projects/osf/tests/test_views.py'
g595
S'TestProjectViews.test_contributor_manage_reorder'
tp737
sI690
(S'/Users/rliebz/Projects/osf/tests/test_views.py'
g595
S'TestProjectViews.test_edit_description'
tp738
sI691
(S'/Users/rliebz/Projects/osf/tests/test_views.py'
g595
S'TestProjectViews.test_edit_node_title'
tp739
sI692
(S'/Users/rliebz/Projects/osf/tests/test_views.py'
g595
S'TestProjectViews.test_for_private_component_log'
tp740
sI693
(S'/Users/rliebz/Projects/osf/tests/test_views.py'
g595
S'TestProjectViews.test_fork_count_does_not_include_deleted_forks'
tp741
sI694
(S'/Users/rliebz/Projects/osf/tests/test_views.py'
g595
S'TestProjectViews.test_get_contributors_abbrev'
tp742
sI695
(S'/Users/rliebz/Projects/osf/tests/test_views.py'
g595
S'TestProjectViews.test_get_logs'
tp743
sI696
(S'/Users/rliebz/Projects/osf/tests/test_views.py'
g595
S'TestProjectViews.test_get_logs_defaults_to_ten'
tp744
sI697
(S'/Users/rliebz/Projects/osf/tests/test_views.py'
g595
S'TestProjectViews.test_get_logs_with_count_param'
tp745
sI698
(S'/Users/rliebz/Projects/osf/tests/test_views.py'
g595
S'TestProjectViews.test_get_more_logs'
tp746
sI699
(S'/Users/rliebz/Projects/osf/tests/test_views.py'
g595
S'TestProjectViews.test_logs_private'
tp747
sI700
(S'/Users/rliebz/Projects/osf/tests/test_views.py'
g595
S'TestProjectViews.test_make_private'
tp748
sI701
(S'/Users/rliebz/Projects/osf/tests/test_views.py'
g595
S'TestProjectViews.test_make_public'
tp749
sI702
(S'/Users/rliebz/Projects/osf/tests/test_views.py'
g595
S'TestProjectViews.test_manage_permissions'
tp750
sI703
(S'/Users/rliebz/Projects/osf/tests/test_views.py'
g595
S'TestProjectViews.test_new_user_gets_dashboard_on_dashboard_path'
tp751
sI704
(S'/Users/rliebz/Projects/osf/tests/test_views.py'
g595
S'TestProjectViews.test_private_link_edit_name'
tp752
sI705
(S'/Users/rliebz/Projects/osf/tests/test_views.py'
g595
S'TestProjectViews.test_project_api_url'
tp753
sI706
(S'/Users/rliebz/Projects/osf/tests/test_views.py'
g595
S'TestProjectViews.test_project_remove_contributor'
tp754
sI707
(S'/Users/rliebz/Projects/osf/tests/test_views.py'
g595
S'TestProjectViews.test_register_template_page'
tp755
sI708
(S'/Users/rliebz/Projects/osf/tests/test_views.py'
g595
S'TestProjectViews.test_register_template_page_with_invalid_template_name'
tp756
sI709
(S'/Users/rliebz/Projects/osf/tests/test_views.py'
g595
S'TestProjectViews.test_remove_component'
tp757
sI710
(S'/Users/rliebz/Projects/osf/tests/test_views.py'
g595
S'TestProjectViews.test_remove_private_link'
tp758
sI711
(S'/Users/rliebz/Projects/osf/tests/test_views.py'
g595
S'TestProjectViews.test_remove_project'
tp759
sI712
(S'/Users/rliebz/Projects/osf/tests/test_views.py'
g595
S'TestProjectViews.test_remove_tag'
tp760
sI713
(S'/Users/rliebz/Projects/osf/tests/test_views.py'
g595
S'TestProjectViews.test_view_project_returns_whether_to_show_wiki_widget'
tp761
sI714
(S'/Users/rliebz/Projects/osf/tests/test_views.py'
g595
S'TestProjectViews.test_watch_and_unwatch'
tp762
sI715
(S'/Users/rliebz/Projects/osf/tests/test_views.py'
g595
S'TestPublicViews.test_explore'
tp763
sI716
(S'/Users/rliebz/Projects/osf/tests/test_views.py'
g595
S'TestReorderComponents.test_reorder_components_with_private_component'
tp764
sI717
(S'/Users/rliebz/Projects/osf/tests/test_views.py'
g595
S'TestSearchViews.test_search_contributor'
tp765
sI718
(S'/Users/rliebz/Projects/osf/tests/test_views.py'
g595
S'TestSearchViews.test_search_pagination_default'
tp766
sI719
(S'/Users/rliebz/Projects/osf/tests/test_views.py'
g595
S'TestSearchViews.test_search_pagination_default_page_1'
tp767
sI720
(S'/Users/rliebz/Projects/osf/tests/test_views.py'
g595
S'TestSearchViews.test_search_pagination_default_page_2'
tp768
sI721
(S'/Users/rliebz/Projects/osf/tests/test_views.py'
g595
S'TestSearchViews.test_search_pagination_smaller_pages'
tp769
sI722
(S'/Users/rliebz/Projects/osf/tests/test_views.py'
g595
S'TestSearchViews.test_search_pagination_smaller_pages_page_2'
tp770
sI723
(S'/Users/rliebz/Projects/osf/tests/test_views.py'
g595
S'TestSearchViews.test_search_projects'
tp771
sI724
(S'/Users/rliebz/Projects/osf/tests/test_views.py'
g595
S'TestStaticFileViews.test_favicon'
tp772
sI725
(S'/Users/rliebz/Projects/osf/tests/test_views.py'
g595
S'TestStaticFileViews.test_robots_dot_txt'
tp773
sI726
(S'/Users/rliebz/Projects/osf/tests/test_views.py'
g595
S'TestTagViews.test_tag_get_returns_200'
tp774
sI727
(S'/Users/rliebz/Projects/osf/tests/test_views.py'
g595
S'TestUnconfirmedUserViews.test_can_view_profile'
tp775
sI728
(S'/Users/rliebz/Projects/osf/tests/test_views.py'
g595
S'TestUserAccount.test_password_change_invalid'
tp776
sI729
(S'/Users/rliebz/Projects/osf/tests/test_views.py'
g595
S'TestUserAccount.test_password_change_invalid_blank_confirm_password'
tp777
sI730
(S'/Users/rliebz/Projects/osf/tests/test_views.py'
g595
S'TestUserAccount.test_password_change_invalid_blank_new_password'
tp778
sI731
(S'/Users/rliebz/Projects/osf/tests/test_views.py'
g595
S'TestUserAccount.test_password_change_invalid_blank_password'
tp779
sI732
(S'/Users/rliebz/Projects/osf/tests/test_views.py'
g595
S'TestUserAccount.test_password_change_invalid_confirm_password'
tp780
sI733
(S'/Users/rliebz/Projects/osf/tests/test_views.py'
g595
S'TestUserAccount.test_password_change_invalid_new_password_length'
tp781
sI734
(S'/Users/rliebz/Projects/osf/tests/test_views.py'
g595
S'TestUserAccount.test_password_change_invalid_old_password'
tp782
sI735
(S'/Users/rliebz/Projects/osf/tests/test_views.py'
g595
S'TestUserAccount.test_password_change_valid'
tp783
sI736
(S'/Users/rliebz/Projects/osf/tests/test_views.py'
g595
S'TestUserConfirmSignal.test_confirm_user_signal_called_when_user_claims_account'
tp784
sI737
(S'/Users/rliebz/Projects/osf/tests/test_views.py'
g595
S'TestUserConfirmSignal.test_confirm_user_signal_called_when_user_confirms_email'
tp785
sI738
(S'/Users/rliebz/Projects/osf/tests/test_views.py'
g595
S'TestUserInviteViews.test_invite_contributor_post_if_emaiL_already_registered'
tp786
sI739
(S'/Users/rliebz/Projects/osf/tests/test_views.py'
g595
S'TestUserInviteViews.test_invite_contributor_post_if_not_in_db'
tp787
sI740
(S'/Users/rliebz/Projects/osf/tests/test_views.py'
g595
S'TestUserInviteViews.test_invite_contributor_post_if_unreg_already_in_db'
tp788
sI741
(S'/Users/rliebz/Projects/osf/tests/test_views.py'
g595
S'TestUserInviteViews.test_invite_contributor_post_if_user_is_already_contributor'
tp789
sI742
(S'/Users/rliebz/Projects/osf/tests/test_views.py'
g595
S'TestUserInviteViews.test_invite_contributor_requires_fullname'
tp790
sI743
(S'/Users/rliebz/Projects/osf/tests/test_views.py'
g595
S'TestUserInviteViews.test_invite_contributor_with_no_email'
tp791
sI744
(S'/Users/rliebz/Projects/osf/tests/test_views.py'
g595
S'TestUserInviteViews.test_send_claim_email_to_given_email'
tp792
sI745
(S'/Users/rliebz/Projects/osf/tests/test_views.py'
g595
S'TestUserInviteViews.test_send_claim_email_to_referrer'
tp793
sI746
(S'/Users/rliebz/Projects/osf/tests/test_views.py'
g595
S'TestUserProfile.test_fmt_date_or_none'
tp794
sI747
(S'/Users/rliebz/Projects/osf/tests/test_views.py'
g595
S'TestUserProfile.test_sanitization_of_edit_profile'
tp795
sI748
(S'/Users/rliebz/Projects/osf/tests/test_views.py'
g595
S'TestUserProfile.test_serialize_social_addons_editable'
tp796
sI749
(S'/Users/rliebz/Projects/osf/tests/test_views.py'
g595
S'TestUserProfile.test_serialize_social_addons_not_editable'
tp797
sI750
(S'/Users/rliebz/Projects/osf/tests/test_views.py'
g595
S'TestUserProfile.test_serialize_social_editable'
tp798
sI751
(S'/Users/rliebz/Projects/osf/tests/test_views.py'
g595
S'TestUserProfile.test_serialize_social_not_editable'
tp799
sI752
(S'/Users/rliebz/Projects/osf/tests/test_views.py'
g595
S'TestUserProfile.test_unserialize_and_serialize_jobs'
tp800
sI753
(S'/Users/rliebz/Projects/osf/tests/test_views.py'
g595
S'TestUserProfile.test_unserialize_and_serialize_schools'
tp801
sI754
(S'/Users/rliebz/Projects/osf/tests/test_views.py'
g595
S'TestUserProfile.test_unserialize_jobs'
tp802
sI755
(S'/Users/rliebz/Projects/osf/tests/test_views.py'
g595
S'TestUserProfile.test_unserialize_jobs_valid'
tp803
sI756
(S'/Users/rliebz/Projects/osf/tests/test_views.py'
g595
S'TestUserProfile.test_unserialize_schools'
tp804
sI757
(S'/Users/rliebz/Projects/osf/tests/test_views.py'
g595
S'TestUserProfile.test_unserialize_social'
tp805
sI758
(S'/Users/rliebz/Projects/osf/tests/test_views.py'
g595
S'TestViewingProjectWithPrivateLink.test_check_can_access_valid'
tp806
sI759
(S'/Users/rliebz/Projects/osf/tests/test_views.py'
g595
S'TestViewingProjectWithPrivateLink.test_check_user_access_if_user_is_None'
tp807
sI760
(S'/Users/rliebz/Projects/osf/tests/test_views.py'
g595
S'TestViewingProjectWithPrivateLink.test_check_user_access_invalid'
tp808
sI761
(S'/Users/rliebz/Projects/osf/tests/test_views.py'
g595
S'TestViewingProjectWithPrivateLink.test_has_private_link_key'
tp809
sI762
(S'/Users/rliebz/Projects/osf/tests/test_views.py'
g595
S'TestViewingProjectWithPrivateLink.test_logged_in_has_key'
tp810
sI763
(S'/Users/rliebz/Projects/osf/tests/test_views.py'
g595
S'TestViewingProjectWithPrivateLink.test_logged_in_no_private_key'
tp811
sI764
(S'/Users/rliebz/Projects/osf/tests/test_views.py'
g595
S'TestViewingProjectWithPrivateLink.test_not_anonymous_for_public_project'
tp812
sI765
(S'/Users/rliebz/Projects/osf/tests/test_views.py'
g595
S'TestViewingProjectWithPrivateLink.test_not_logged_in_no_key'
tp813
sI766
(S'/Users/rliebz/Projects/osf/tests/test_views.py'
g595
S'TestViewingProjectWithPrivateLink.test_prepare_private_key'
tp814
sI767
(S'/Users/rliebz/Projects/osf/tests/test_views.py'
g595
S'TestWatchViews.test_get_more_watched_logs'
tp815
sI768
(S'/Users/rliebz/Projects/osf/tests/test_views.py'
g595
S'TestWatchViews.test_get_watched_logs'
tp816
sI769
(S'/Users/rliebz/Projects/osf/tests/test_views.py'
g595
S'TestWatchViews.test_toggle_watch'
tp817
sI770
(S'/Users/rliebz/Projects/osf/tests/test_views.py'
g595
S'TestWatchViews.test_toggle_watch_node'
tp818
sI771
(S'/Users/rliebz/Projects/osf/tests/test_views.py'
g595
S'TestWatchViews.test_unwatching_a_project_removes_from_watched_list'
tp819
sI772
(S'/Users/rliebz/Projects/osf/tests/test_views.py'
g595
S'TestWatchViews.test_watching_a_project_appends_to_users_watched_list'
tp820
sI773
(S'/Users/rliebz/Projects/osf/tests/test_views.py'
g595
S'TestWatchViews.test_watching_project_twice_returns_400'
tp821
sI774
(S'/Users/rliebz/Projects/osf/tests/test_views.py'
g595
S'TestWikiWidgetViews.test_show_wiki_for_contributors_when_no_wiki_or_content'
tp822
sI775
(S'/Users/rliebz/Projects/osf/tests/test_views.py'
g595
S'TestWikiWidgetViews.test_show_wiki_is_false_for_noncontributors_when_no_wiki_or_content'
tp823
sI776
(S'/Users/rliebz/Projects/osf/tests/test_views.py'
g595
S'TestWikiWidgetViews.test_show_wiki_is_false_for_read_contributors_when_no_wiki_or_content'
tp824
sI777
(S'/Users/rliebz/Projects/osf/tests/test_watch.py'
S'tests.test_watch'
p825
S'TestWatching.test_get_daily_digest_log_ids'
tp826
sI778
(S'/Users/rliebz/Projects/osf/tests/test_watch.py'
g825
S'TestWatching.test_get_recent_log_ids'
tp827
sI779
(S'/Users/rliebz/Projects/osf/tests/test_watch.py'
g825
S'TestWatching.test_get_recent_log_ids_since'
tp828
sI780
(S'/Users/rliebz/Projects/osf/tests/test_watch.py'
g825
S'TestWatching.test_unwatch_removes_from_watched_list'
tp829
sI781
(S'/Users/rliebz/Projects/osf/tests/test_watch.py'
g825
S'TestWatching.test_watch_adds_to_watched_list'
tp830
sI782
(S'/Users/rliebz/Projects/osf/tests/webtest_tests.py'
S'tests.webtest_tests'
p831
S'TestAUser.test_can_log_in'
tp832
sI783
(S'/Users/rliebz/Projects/osf/tests/webtest_tests.py'
g831
S'TestAUser.test_can_reset_password'
tp833
sI784
(S'/Users/rliebz/Projects/osf/tests/webtest_tests.py'
g831
S'TestAUser.test_can_see_homepage'
tp834
sI785
(S'/Users/rliebz/Projects/osf/tests/webtest_tests.py'
g831
S'TestAUser.test_can_see_make_private_button_if_admin'
tp835
sI786
(S'/Users/rliebz/Projects/osf/tests/webtest_tests.py'
g831
S'TestAUser.test_can_see_make_public_button_if_admin'
tp836
sI787
(S'/Users/rliebz/Projects/osf/tests/webtest_tests.py'
g831
S'TestAUser.test_can_see_profile_url'
tp837
sI788
(S'/Users/rliebz/Projects/osf/tests/webtest_tests.py'
g831
S'TestAUser.test_cant_see_make_private_button_if_not_admin'
tp838
sI789
(S'/Users/rliebz/Projects/osf/tests/webtest_tests.py'
g831
S'TestAUser.test_cant_see_make_public_button_if_not_admin'
tp839
sI790
(S'/Users/rliebz/Projects/osf/tests/webtest_tests.py'
g831
S'TestAUser.test_does_not_see_osffiles_in_user_addon_settings'
tp840
sI791
(S'/Users/rliebz/Projects/osf/tests/webtest_tests.py'
g831
S'TestAUser.test_is_redirected_to_dashboard_already_logged_in_at_login_page'
tp841
sI792
(S'/Users/rliebz/Projects/osf/tests/webtest_tests.py'
g831
S'TestAUser.test_no_wiki_content_message'
tp842
sI793
(S'/Users/rliebz/Projects/osf/tests/webtest_tests.py'
g831
S'TestAUser.test_noncontributor_cannot_see_wiki_if_no_content'
tp843
sI794
(S'/Users/rliebz/Projects/osf/tests/webtest_tests.py'
g831
S'TestAUser.test_sees_another_profile'
tp844
sI795
(S'/Users/rliebz/Projects/osf/tests/webtest_tests.py'
g831
S'TestAUser.test_sees_correct_title_home_page'
tp845
sI796
(S'/Users/rliebz/Projects/osf/tests/webtest_tests.py'
g831
S'TestAUser.test_sees_correct_title_on_dashboard'
tp846
sI797
(S'/Users/rliebz/Projects/osf/tests/webtest_tests.py'
g831
S'TestAUser.test_sees_flash_message_on_bad_login'
tp847
sI798
(S'/Users/rliebz/Projects/osf/tests/webtest_tests.py'
g831
S'TestAUser.test_sees_log_events_on_watched_projects'
tp848
sI799
(S'/Users/rliebz/Projects/osf/tests/webtest_tests.py'
g831
S'TestAUser.test_sees_logs_on_a_project'
tp849
sI800
(S'/Users/rliebz/Projects/osf/tests/webtest_tests.py'
g831
S'TestAUser.test_sees_osffiles_in_project_addon_settings'
tp850
sI801
(S'/Users/rliebz/Projects/osf/tests/webtest_tests.py'
g831
S'TestAUser.test_sees_own_profile'
tp851
sI802
(S'/Users/rliebz/Projects/osf/tests/webtest_tests.py'
g831
S'TestAUser.test_sees_projects_in_her_dashboard'
tp852
sI803
(S'/Users/rliebz/Projects/osf/tests/webtest_tests.py'
g831
S'TestAUser.test_wiki_does_not_exist'
tp853
sI804
(S'/Users/rliebz/Projects/osf/tests/webtest_tests.py'
g831
S'TestAUser.test_wiki_page_name_non_ascii'
tp854
sI805
(S'/Users/rliebz/Projects/osf/tests/webtest_tests.py'
g831
S'TestAnUnregisteredUser.test_can_register'
tp855
sI806
(S'/Users/rliebz/Projects/osf/tests/webtest_tests.py'
g831
S'TestAnUnregisteredUser.test_cant_see_profile'
tp856
sI807
(S'/Users/rliebz/Projects/osf/tests/webtest_tests.py'
g831
S'TestAnUnregisteredUser.test_sees_error_if_email_is_already_registered'
tp857
sI808
(S'/Users/rliebz/Projects/osf/tests/webtest_tests.py'
g831
S'TestClaiming.test_cannot_go_to_claim_url_after_setting_password'
tp858
sI809
(S'/Users/rliebz/Projects/osf/tests/webtest_tests.py'
g831
S'TestClaiming.test_cannot_set_email_to_a_user_that_already_exists'
tp859
sI810
(S'/Users/rliebz/Projects/osf/tests/webtest_tests.py'
g831
S'TestClaiming.test_correct_display_name_is_shown_at_claim_page'
tp860
sI811
(S'/Users/rliebz/Projects/osf/tests/webtest_tests.py'
g831
S'TestClaiming.test_correct_name_shows_in_contributor_list'
tp861
sI812
(S'/Users/rliebz/Projects/osf/tests/webtest_tests.py'
g831
S'TestClaiming.test_sees_is_redirected_if_user_already_logged_in'
tp862
sI813
(S'/Users/rliebz/Projects/osf/tests/webtest_tests.py'
g831
S'TestClaiming.test_unregistered_user_can_create_an_account'
tp863
sI814
(S'/Users/rliebz/Projects/osf/tests/webtest_tests.py'
g831
S'TestClaiming.test_unregistered_users_names_are_project_specific'
tp864
sI815
(S'/Users/rliebz/Projects/osf/tests/webtest_tests.py'
g831
S'TestClaiming.test_user_can_set_password_on_claim_page'
tp865
sI816
(S'/Users/rliebz/Projects/osf/tests/webtest_tests.py'
g831
S'TestClaimingAsARegisteredUser.test_claim_user_registered_with_correct_password'
tp866
sI817
(S'/Users/rliebz/Projects/osf/tests/webtest_tests.py'
g831
S'TestClaimingAsARegisteredUser.test_user_can_log_in_with_a_different_account'
tp867
sI818
(S'/Users/rliebz/Projects/osf/tests/webtest_tests.py'
g831
S'TestClaimingAsARegisteredUser.test_user_with_claim_url_registers_new_account'
tp868
sI819
(S'/Users/rliebz/Projects/osf/tests/webtest_tests.py'
g831
S'TestComponents.test_can_configure_comments_if_admin'
tp869
sI820
(S'/Users/rliebz/Projects/osf/tests/webtest_tests.py'
g831
S'TestComponents.test_can_create_component_from_a_project'
tp870
sI821
(S'/Users/rliebz/Projects/osf/tests/webtest_tests.py'
g831
S'TestComponents.test_cannot_create_component_from_a_component'
tp871
sI822
(S'/Users/rliebz/Projects/osf/tests/webtest_tests.py'
g831
S'TestComponents.test_cant_configure_comments_if_not_admin'
tp872
sI823
(S'/Users/rliebz/Projects/osf/tests/webtest_tests.py'
g831
S'TestComponents.test_cant_delete_project_if_not_admin'
tp873
sI824
(S'/Users/rliebz/Projects/osf/tests/webtest_tests.py'
g831
S'TestComponents.test_components_shouldnt_have_component_list'
tp874
sI825
(S'/Users/rliebz/Projects/osf/tests/webtest_tests.py'
g831
S'TestComponents.test_delete_project'
tp875
sI826
(S'/Users/rliebz/Projects/osf/tests/webtest_tests.py'
g831
S'TestComponents.test_do_not_show_registration_button'
tp876
sI827
(S'/Users/rliebz/Projects/osf/tests/webtest_tests.py'
g831
S'TestComponents.test_sees_parent'
tp877
sI828
(S'/Users/rliebz/Projects/osf/tests/webtest_tests.py'
g831
S'TestConfirmingEmail.test_error_page_if_confirm_link_is_expired'
tp878
sI829
(S'/Users/rliebz/Projects/osf/tests/webtest_tests.py'
g831
S'TestConfirmingEmail.test_flash_message_does_not_break_page_if_email_unconfirmed'
tp879
sI830
(S'/Users/rliebz/Projects/osf/tests/webtest_tests.py'
g831
S'TestConfirmingEmail.test_redirects_to_settings'
tp880
sI831
(S'/Users/rliebz/Projects/osf/tests/webtest_tests.py'
g831
S'TestConfirmingEmail.test_resend_form'
tp881
sI832
(S'/Users/rliebz/Projects/osf/tests/webtest_tests.py'
g831
S'TestConfirmingEmail.test_resend_form_does_nothing_if_not_in_db'
tp882
sI833
(S'/Users/rliebz/Projects/osf/tests/webtest_tests.py'
g831
S'TestConfirmingEmail.test_resend_form_shows_alert_if_email_already_confirmed'
tp883
sI834
(S'/Users/rliebz/Projects/osf/tests/webtest_tests.py'
g831
S'TestDisabledUser.test_profile_disabled'
tp884
sI835
(S'/Users/rliebz/Projects/osf/tests/webtest_tests.py'
g831
S'TestExplorePublicActivity.test_newest_public_project_and_registrations_show_in_explore_activity'
tp885
sI836
(S'/Users/rliebz/Projects/osf/tests/webtest_tests.py'
g831
S'TestMergingAccounts.test_can_merge_accounts'
tp886
sI837
(S'/Users/rliebz/Projects/osf/tests/webtest_tests.py'
g831
S'TestMergingAccounts.test_merged_user_has_alert_message_on_profile'
tp887
sI838
(S'/Users/rliebz/Projects/osf/tests/webtest_tests.py'
g831
S'TestMergingAccounts.test_merged_user_is_not_shown_as_a_contributor'
tp888
sI839
(S'/Users/rliebz/Projects/osf/tests/webtest_tests.py'
g831
S'TestMergingAccounts.test_sees_error_message_when_merged_password_is_wrong'
tp889
sI840
(S'/Users/rliebz/Projects/osf/tests/webtest_tests.py'
g831
S'TestMergingAccounts.test_sees_error_message_when_own_password_is_wrong'
tp890
sI841
(S'/Users/rliebz/Projects/osf/tests/webtest_tests.py'
g831
S'TestPiwik.test_anonymous_no_token'
tp891
sI842
(S'/Users/rliebz/Projects/osf/tests/webtest_tests.py'
g831
S'TestPiwik.test_contains_iframe_and_src'
tp892
sI843
(S'/Users/rliebz/Projects/osf/tests/webtest_tests.py'
g831
S'TestPiwik.test_contributor_token'
tp893
sI844
(S'/Users/rliebz/Projects/osf/tests/webtest_tests.py'
g831
S'TestPiwik.test_no_user_token'
tp894
sI845
(S'/Users/rliebz/Projects/osf/tests/webtest_tests.py'
g831
S'TestPiwik.test_private_alert'
tp895
sI846
(S'/Users/rliebz/Projects/osf/tests/webtest_tests.py'
g831
S'TestPrivateLinkView.test_anonymous_link_hide_contributor'
tp896
sI847
(S'/Users/rliebz/Projects/osf/tests/webtest_tests.py'
g831
S'TestPrivateLinkView.test_anonymous_link_hides_citations'
tp897
sI848
(S'/Users/rliebz/Projects/osf/tests/webtest_tests.py'
g831
S'TestPrivateLinkView.test_no_warning_for_read_only_user_with_invalid_link'
tp898
sI849
(S'/Users/rliebz/Projects/osf/tests/webtest_tests.py'
g831
S'TestPrivateLinkView.test_no_warning_for_read_only_user_with_valid_link'
tp899
sI850
(S'/Users/rliebz/Projects/osf/tests/webtest_tests.py'
g831
S'TestRegistrations.test_can_see_contributor'
tp900
sI851
(S'/Users/rliebz/Projects/osf/tests/webtest_tests.py'
g831
S'TestRegistrations.test_cant_be_deleted'
tp901
sI852
(S'/Users/rliebz/Projects/osf/tests/webtest_tests.py'
g831
S'TestRegistrations.test_navbar_has_correct_links'
tp902
sI853
(S'/Users/rliebz/Projects/osf/tests/webtest_tests.py'
g831
S'TestRegistrations.test_registration_nav_not_seen'
tp903
sI854
(S'/Users/rliebz/Projects/osf/tests/webtest_tests.py'
g831
S'TestRegistrations.test_sees_registration_templates'
tp904
sI855
(S'/Users/rliebz/Projects/osf/tests/webtest_tests.py'
g831
S'TestSearching.test_a_public_component_from_home_page'
tp905
sI856
(S'/Users/rliebz/Projects/osf/tests/webtest_tests.py'
g831
S'TestSearching.test_a_public_project_from_home_page'
tp906
sI857
(S'/Users/rliebz/Projects/osf/tests/webtest_tests.py'
g831
S'TestSearching.test_a_user_from_home_page'
tp907
sI858
(S'/Users/rliebz/Projects/osf/tests/webtest_tests.py'
g831
S'TestShortUrls.test_component_url'
tp908
sI859
(S'/Users/rliebz/Projects/osf/tests/webtest_tests.py'
g831
S'TestShortUrls.test_profile_url'
tp909
sI860
(S'/Users/rliebz/Projects/osf/tests/webtest_tests.py'
g831
S'TestShortUrls.test_project_url'
tp910
sI861
(S'/Users/rliebz/Projects/osf/tests/webtest_tests.py'
g831
S'TestShortUrls.test_wiki_url'
tp911
ss.