(dp1
S'session'
p2
(dp3
S'visitedByDate'
p4
(dp5
S'date'
p6
S'2013/07/24'
p7
sS'pages'
p8
(lp9
S'node:bznBU'
p10
aS'node:dFWRp'
p11
aS'node:QTud2'
p12
assS'auth_user_id'
p13
VwByH4
p14
sS'auth_user_username'
p15
Vtest@test.test
p16
sS's'
S't'
sS'_accessed_time'
p17
F1374697321.1324251
sS'auth_user_fullname'
p18
Vtest test
p19
sS'visited'
p20
(lp21
S'node:bzjR5'
p22
aS'node:ckuQn'
p23
aS'node:KSpqg'
p24
aS'node:mdjtW'
p25
aS'node:QyDSn'
p26
aS'node:Dd6uV'
p27
aS'node:afJP6'
p28
aS'node:bznBU'
p29
ag11
ag12
asS'url_previous'
p30
S'http://localhost:5000/account'
p31
sS'status_prev'
p32
(lp33
S'Component(s) deleted'
p34
asS'_creation_time'
p35
F1374242856.1314819
ss.